(lp0
(I0
I0
I0
tp1
a(I0
I0
I2
tp2
a(I0
I0
I4
tp3
a(I0
I0
I5
tp4
a(I0
I1
I0
tp5
a(I0
I1
I2
tp6
a(I0
I1
I3
tp7
a(I0
I1
I4
tp8
a(I0
I1
I5
tp9
a(I0
I1
I6
tp10
a(I0
I2
I0
tp11
a(I0
I2
I1
tp12
a(I0
I2
I2
tp13
a(I0
I2
I3
tp14
a(I0
I2
I5
tp15
a(I0
I3
I0
tp16
a(I0
I3
I1
tp17
a(I0
I3
I2
tp18
a(I0
I3
I4
tp19
a(I0
I12
I12
tp20
a(I1
I0
I0
tp21
a(I1
I0
I2
tp22
a(I1
I0
I4
tp23
a(I1
I0
I5
tp24
a(I1
I0
I6
tp25
a(I1
I1
I0
tp26
a(I1
I1
I1
tp27
a(I1
I1
I3
tp28
a(I1
I2
I0
tp29
a(I1
I2
I4
tp30
a(I1
I2
I6
tp31
a(I1
I3
I0
tp32
a(I1
I3
I2
tp33
a(I1
I11
I10
tp34
a(I1
I12
I14
tp35
a(I1
I13
I9
tp36
a(I1
I13
I11
tp37
a(I1
I13
I13
tp38
a(I2
I0
I1
tp39
a(I2
I0
I3
tp40
a(I2
I0
I5
tp41
a(I2
I1
I0
tp42
a(I2
I2
I0
tp43
a(I2
I2
I2
tp44
a(I2
I2
I4
tp45
a(I2
I10
I12
tp46
a(I2
I11
I10
tp47
a(I2
I11
I16
tp48
a(I2
I12
I11
tp49
a(I2
I12
I13
tp50
a(I2
I12
I14
tp51
a(I2
I13
I7
tp52
a(I2
I13
I9
tp53
a(I2
I13
I15
tp54
a(I2
I14
I10
tp55
a(I2
I14
I12
tp56
a(I2
I14
I14
tp57
a(I3
I0
I0
tp58
a(I3
I0
I2
tp59
a(I3
I0
I4
tp60
a(I3
I1
I2
tp61
a(I3
I1
I4
tp62
a(I3
I2
I0
tp63
a(I3
I11
I13
tp64
a(I3
I11
I14
tp65
a(I3
I12
I9
tp66
a(I3
I12
I11
tp67
a(I3
I13
I12
tp68
a(I3
I13
I14
tp69
a(I3
I13
I15
tp70
a(I3
I14
I10
tp71
a(I3
I14
I16
tp72
a(I4
I0
I0
tp73
a(I4
I0
I1
tp74
a(I4
I0
I2
tp75
a(I4
I0
I3
tp76
a(I4
I0
I4
tp77
a(I4
I0
I5
tp78
a(I4
I9
I12
tp79
a(I4
I12
I14
tp80
a(I4
I12
I15
tp81
a(I4
I13
I8
tp82
a(I4
I13
I10
tp83
a(I4
I13
I12
tp84
a(I4
I14
I13
tp85
a(I4
I14
I15
tp86
a(I5
I0
I0
tp87
a(I5
I0
I3
tp88
a(I5
I0
I4
tp89
a(I5
I1
I0
tp90
a(I5
I1
I2
tp91
a(I5
I10
I13
tp92
a(I5
I10
I16
tp93
a(I5
I11
I9
tp94
a(I5
I11
I11
tp95
a(I5
I12
I18
tp96
a(I5
I13
I15
tp97
a(I5
I14
I11
tp98
a(I5
I14
I13
tp99
a(I6
I10
I9
tp100
a(I6
I10
I11
tp101
a(I6
I10
I13
tp102
a(I6
I11
I7
tp103
a(I6
I11
I14
tp104
a(I6
I11
I15
tp105
a(I6
I12
I8
tp106
a(I6
I12
I10
tp107
a(I6
I12
I12
tp108
a(I7
I10
I15
tp109
a(I7
I11
I10
tp110
a(I7
I11
I12
tp111
a(I7
I11
I14
tp112
a(I7
I12
I15
tp113
a(I7
I12
I16
tp114
a(I7
I13
I9
tp115
a(I7
I13
I13
tp116
a(I8
I10
I9
tp117
a(I8
I12
I11
tp118
a(I8
I12
I13
tp119
a(I8
I13
I9
tp120
a(I8
I13
I16
tp121
a(I8
I14
I12
tp122
a(I9
I10
I12
tp123
a(I9
I11
I8
tp124
a(I9
I11
I10
tp125
a(I9
I13
I12
tp126
a(I9
I13
I14
tp127
a(I9
I13
I16
tp128
a(I9
I14
I8
tp129
a(I9
I14
I10
tp130
a(I9
I14
I17
tp131
a(I9
I21
I17
tp132
a(I9
I21
I21
tp133
a(I10
I10
I10
tp134
a(I10
I10
I12
tp135
a(I10
I11
I13
tp136
a(I10
I11
I15
tp137
a(I10
I12
I7
tp138
a(I10
I12
I9
tp139
a(I10
I12
I11
tp140
a(I10
I14
I13
tp141
a(I10
I14
I15
tp142
a(I10
I15
I9
tp143
a(I10
I15
I11
tp144
a(I10
I19
I16
tp145
a(I10
I19
I24
tp146
a(I10
I20
I19
tp147
a(I10
I20
I21
tp148
a(I10
I20
I22
tp149
a(I10
I21
I17
tp150
a(I10
I21
I23
tp151
a(I10
I22
I20
tp152
a(I11
I9
I10
tp153
a(I11
I10
I15
tp154
a(I11
I11
I9
tp155
a(I11
I11
I11
tp156
a(I11
I11
I13
tp157
a(I11
I12
I6
tp158
a(I11
I12
I7
tp159
a(I11
I12
I14
tp160
a(I11
I12
I16
tp161
a(I11
I13
I8
tp162
a(I11
I13
I10
tp163
a(I11
I13
I12
tp164
a(I11
I14
I7
tp165
a(I11
I15
I16
tp166
a(I11
I19
I21
tp167
a(I11
I19
I22
tp168
a(I11
I20
I15
tp169
a(I11
I20
I17
tp170
a(I11
I20
I19
tp171
a(I11
I20
I25
tp172
a(I11
I21
I20
tp173
a(I11
I21
I22
tp174
a(I11
I21
I23
tp175
a(I11
I22
I18
tp176
a(I12
I10
I11
tp177
a(I12
I10
I13
tp178
a(I12
I11
I7
tp179
a(I12
I11
I9
tp180
a(I12
I11
I16
tp181
a(I12
I12
I10
tp182
a(I12
I12
I12
tp183
a(I12
I12
I14
tp184
a(I12
I13
I7
tp185
a(I12
I13
I8
tp186
a(I12
I13
I15
tp187
a(I12
I13
I17
tp188
a(I12
I13
I18
tp189
a(I12
I14
I9
tp190
a(I12
I14
I11
tp191
a(I12
I14
I13
tp192
a(I12
I17
I20
tp193
a(I12
I18
I18
tp194
a(I12
I19
I25
tp195
a(I12
I20
I22
tp196
a(I12
I20
I23
tp197
a(I12
I21
I16
tp198
a(I12
I21
I18
tp199
a(I12
I21
I20
tp200
a(I12
I22
I21
tp201
a(I12
I22
I23
tp202
a(I12
I22
I24
tp203
a(I13
I11
I12
tp204
a(I13
I11
I14
tp205
a(I13
I11
I16
tp206
a(I13
I12
I8
tp207
a(I13
I12
I10
tp208
a(I13
I12
I17
tp209
a(I13
I13
I11
tp210
a(I13
I13
I13
tp211
a(I13
I13
I15
tp212
a(I13
I14
I9
tp213
a(I13
I15
I14
tp214
a(I13
I18
I21
tp215
a(I13
I18
I22
tp216
a(I13
I19
I17
tp217
a(I13
I19
I19
tp218
a(I13
I22
I21
tp219
a(I14
I9
I13
tp220
a(I14
I10
I9
tp221
a(I14
I10
I11
tp222
a(I14
I12
I13
tp223
a(I14
I12
I15
tp224
a(I14
I12
I17
tp225
a(I14
I13
I9
tp226
a(I14
I13
I11
tp227
a(I14
I14
I14
tp228
a(I14
I14
I16
tp229
a(I14
I17
I22
tp230
a(I14
I18
I17
tp231
a(I14
I18
I19
tp232
a(I14
I18
I21
tp233
a(I14
I19
I22
tp234
a(I14
I19
I23
tp235
a(I14
I20
I16
tp236
a(I14
I20
I18
tp237
a(I14
I20
I20
tp238
a(I15
I10
I7
tp239
a(I15
I10
I14
tp240
a(I15
I11
I8
tp241
a(I15
I11
I10
tp242
a(I15
I11
I12
tp243
a(I15
I13
I14
tp244
a(I15
I14
I12
tp245
a(I15
I19
I18
tp246
a(I15
I19
I20
tp247
a(I15
I19
I22
tp248
a(I15
I20
I16
tp249
a(I15
I21
I21
tp250
a(I15
I29
I30
tp251
a(I16
I11
I15
tp252
a(I16
I11
I17
tp253
a(I16
I12
I11
tp254
a(I16
I12
I13
tp255
a(I16
I17
I19
tp256
a(I16
I17
I21
tp257
a(I16
I18
I17
tp258
a(I16
I20
I19
tp259
a(I16
I20
I21
tp260
a(I16
I21
I15
tp261
a(I17
I18
I20
tp262
a(I17
I19
I18
tp263
a(I17
I21
I20
tp264
a(I17
I21
I22
tp265
a(I17
I21
I24
tp266
a(I17
I22
I18
tp267
a(I17
I27
I26
tp268
a(I17
I29
I29
tp269
a(I18
I18
I16
tp270
a(I18
I18
I18
tp271
a(I18
I19
I21
tp272
a(I18
I19
I23
tp273
a(I18
I20
I15
tp274
a(I18
I20
I17
tp275
a(I18
I20
I19
tp276
a(I18
I22
I21
tp277
a(I18
I22
I23
tp278
a(I18
I22
I25
tp279
a(I18
I23
I19
tp280
a(I18
I27
I24
tp281
a(I18
I27
I26
tp282
a(I18
I28
I27
tp283
a(I18
I28
I29
tp284
a(I18
I28
I30
tp285
a(I18
I29
I25
tp286
a(I18
I29
I31
tp287
a(I18
I30
I26
tp288
a(I18
I30
I28
tp289
a(I18
I30
I30
tp290
a(I19
I17
I18
tp291
a(I19
I18
I23
tp292
a(I19
I19
I17
tp293
a(I19
I19
I19
tp294
a(I19
I19
I21
tp295
a(I19
I20
I15
tp296
a(I19
I20
I22
tp297
a(I19
I20
I24
tp298
a(I19
I21
I16
tp299
a(I19
I21
I18
tp300
a(I19
I21
I20
tp301
a(I19
I27
I29
tp302
a(I19
I27
I30
tp303
a(I19
I28
I25
tp304
a(I19
I28
I27
tp305
a(I19
I28
I33
tp306
a(I19
I29
I28
tp307
a(I19
I29
I30
tp308
a(I19
I29
I31
tp309
a(I19
I30
I24
tp310
a(I19
I30
I26
tp311
a(I20
I18
I19
tp312
a(I20
I18
I21
tp313
a(I20
I18
I23
tp314
a(I20
I19
I15
tp315
a(I20
I19
I17
tp316
a(I20
I19
I24
tp317
a(I20
I20
I18
tp318
a(I20
I20
I20
tp319
a(I20
I20
I22
tp320
a(I20
I21
I16
tp321
a(I20
I21
I23
tp322
a(I20
I21
I25
tp323
a(I20
I22
I19
tp324
a(I20
I22
I21
tp325
a(I20
I25
I28
tp326
a(I20
I25
I29
tp327
a(I20
I28
I30
tp328
a(I20
I28
I31
tp329
a(I20
I29
I26
tp330
a(I20
I29
I28
tp331
a(I20
I30
I31
tp332
a(I20
I30
I32
tp333
a(I20
I31
I27
tp334
a(I21
I19
I20
tp335
a(I21
I19
I22
tp336
a(I21
I19
I24
tp337
a(I21
I20
I16
tp338
a(I21
I20
I18
tp339
a(I21
I20
I25
tp340
a(I21
I21
I19
tp341
a(I21
I21
I21
tp342
a(I21
I21
I23
tp343
a(I21
I22
I17
tp344
a(I21
I22
I24
tp345
a(I21
I23
I22
tp346
a(I21
I25
I28
tp347
a(I21
I26
I29
tp348
a(I21
I26
I30
tp349
a(I21
I27
I25
tp350
a(I21
I27
I27
tp351
a(I21
I29
I31
tp352
a(I21
I30
I29
tp353
a(I22
I18
I17
tp354
a(I22
I18
I19
tp355
a(I22
I20
I21
tp356
a(I22
I20
I23
tp357
a(I22
I20
I25
tp358
a(I22
I21
I17
tp359
a(I22
I21
I19
tp360
a(I22
I22
I22
tp361
a(I22
I25
I30
tp362
a(I22
I26
I25
tp363
a(I22
I26
I27
tp364
a(I22
I26
I29
tp365
a(I22
I27
I30
tp366
a(I22
I27
I31
tp367
a(I22
I28
I24
tp368
a(I22
I28
I26
tp369
a(I22
I28
I28
tp370
a(I22
I30
I33
tp371
a(I23
I18
I22
tp372
a(I23
I19
I16
tp373
a(I23
I19
I18
tp374
a(I23
I19
I20
tp375
a(I23
I27
I26
tp376
a(I23
I27
I28
tp377
a(I23
I27
I30
tp378
a(I23
I28
I31
tp379
a(I23
I28
I32
tp380
a(I23
I29
I29
tp381
a(I23
I37
I37
tp382
a(I23
I38
I33
tp383
a(I24
I18
I20
tp384
a(I24
I19
I16
tp385
a(I24
I20
I19
tp386
a(I24
I20
I21
tp387
a(I24
I25
I27
tp388
a(I24
I25
I29
tp389
a(I24
I27
I32
tp390
a(I24
I28
I27
tp391
a(I24
I28
I29
tp392
a(I24
I29
I25
tp393
a(I24
I29
I32
tp394
a(I24
I36
I32
tp395
a(I24
I39
I34
tp396
a(I25
I26
I28
tp397
a(I25
I29
I28
tp398
a(I25
I29
I30
tp399
a(I25
I29
I32
tp400
a(I25
I30
I26
tp401
a(I25
I30
I33
tp402
a(I25
I35
I34
tp403
a(I25
I35
I36
tp404
a(I25
I35
I37
tp405
a(I25
I36
I32
tp406
a(I25
I36
I38
tp407
a(I25
I36
I40
tp408
a(I25
I37
I33
tp409
a(I25
I37
I35
tp410
a(I25
I37
I37
tp411
a(I25
I38
I31
tp412
a(I26
I26
I26
tp413
a(I26
I27
I29
tp414
a(I26
I27
I31
tp415
a(I26
I27
I32
tp416
a(I26
I28
I25
tp417
a(I26
I28
I27
tp418
a(I26
I30
I29
tp419
a(I26
I30
I31
tp420
a(I26
I30
I33
tp421
a(I26
I31
I25
tp422
a(I26
I31
I27
tp423
a(I26
I34
I36
tp424
a(I26
I34
I37
tp425
a(I26
I35
I32
tp426
a(I26
I35
I34
tp427
a(I26
I35
I40
tp428
a(I26
I36
I35
tp429
a(I26
I36
I37
tp430
a(I26
I36
I38
tp431
a(I26
I37
I31
tp432
a(I26
I37
I33
tp433
a(I26
I37
I39
tp434
a(I26
I37
I41
tp435
a(I26
I38
I34
tp436
a(I26
I38
I36
tp437
a(I26
I38
I38
tp438
a(I27
I26
I31
tp439
a(I27
I27
I25
tp440
a(I27
I27
I27
tp441
a(I27
I27
I29
tp442
a(I27
I28
I23
tp443
a(I27
I28
I30
tp444
a(I27
I28
I32
tp445
a(I27
I29
I24
tp446
a(I27
I29
I26
tp447
a(I27
I29
I28
tp448
a(I27
I31
I30
tp449
a(I27
I34
I40
tp450
a(I27
I35
I37
tp451
a(I27
I35
I38
tp452
a(I27
I36
I31
tp453
a(I27
I36
I33
tp454
a(I27
I36
I35
tp455
a(I27
I36
I41
tp456
a(I27
I37
I36
tp457
a(I27
I37
I38
tp458
a(I27
I37
I39
tp459
a(I27
I38
I32
tp460
a(I27
I38
I34
tp461
a(I27
I38
I42
tp462
a(I27
I39
I37
tp463
a(I28
I26
I27
tp464
a(I28
I26
I29
tp465
a(I28
I27
I25
tp466
a(I28
I27
I32
tp467
a(I28
I27
I33
tp468
a(I28
I28
I26
tp469
a(I28
I28
I28
tp470
a(I28
I28
I30
tp471
a(I28
I29
I23
tp472
a(I28
I29
I24
tp473
a(I28
I29
I31
tp474
a(I28
I29
I33
tp475
a(I28
I30
I25
tp476
a(I28
I30
I27
tp477
a(I28
I30
I29
tp478
a(I28
I33
I36
tp479
a(I28
I33
I37
tp480
a(I28
I34
I32
tp481
a(I28
I34
I34
tp482
a(I28
I36
I38
tp483
a(I28
I36
I39
tp484
a(I28
I37
I32
tp485
a(I28
I37
I34
tp486
a(I28
I37
I36
tp487
a(I28
I38
I37
tp488
a(I28
I38
I39
tp489
a(I28
I38
I40
tp490
a(I28
I39
I35
tp491
a(I29
I25
I26
tp492
a(I29
I27
I28
tp493
a(I29
I27
I30
tp494
a(I29
I27
I32
tp495
a(I29
I28
I24
tp496
a(I29
I28
I26
tp497
a(I29
I28
I33
tp498
a(I29
I29
I27
tp499
a(I29
I29
I29
tp500
a(I29
I29
I31
tp501
a(I29
I30
I25
tp502
a(I29
I34
I37
tp503
a(I29
I34
I38
tp504
a(I29
I35
I31
tp505
a(I29
I35
I33
tp506
a(I29
I35
I35
tp507
a(I29
I36
I42
tp508
a(I29
I37
I39
tp509
a(I29
I37
I40
tp510
a(I29
I38
I37
tp511
a(I30
I26
I27
tp512
a(I30
I28
I29
tp513
a(I30
I28
I31
tp514
a(I30
I28
I33
tp515
a(I30
I29
I27
tp516
a(I30
I30
I28
tp517
a(I30
I30
I30
tp518
a(I30
I33
I42
tp519
a(I30
I34
I33
tp520
a(I30
I34
I35
tp521
a(I30
I34
I37
tp522
a(I30
I35
I38
tp523
a(I30
I35
I39
tp524
a(I30
I35
I41
tp525
a(I30
I36
I32
tp526
a(I30
I36
I34
tp527
a(I30
I36
I36
tp528
a(I30
I37
I43
tp529
a(I31
I26
I30
tp530
a(I31
I27
I24
tp531
a(I31
I27
I26
tp532
a(I31
I27
I28
tp533
a(I31
I35
I34
tp534
a(I31
I35
I36
tp535
a(I31
I35
I38
tp536
a(I31
I36
I39
tp537
a(I31
I36
I40
tp538
a(I31
I37
I35
tp539
a(I31
I37
I37
tp540
a(I31
I38
I44
tp541
a(I31
I38
I46
tp542
a(I31
I44
I52
tp543
a(I32
I26
I26
tp544
a(I32
I27
I31
tp545
a(I32
I28
I25
tp546
a(I32
I28
I27
tp547
a(I32
I28
I29
tp548
a(I32
I33
I35
tp549
a(I32
I34
I33
tp550
a(I32
I35
I40
tp551
a(I32
I36
I35
tp552
a(I32
I36
I37
tp553
a(I32
I36
I39
tp554
a(I32
I36
I45
tp555
a(I32
I37
I33
tp556
a(I32
I37
I40
tp557
a(I32
I37
I41
tp558
a(I32
I38
I38
tp559
a(I32
I44
I56
tp560
a(I32
I45
I53
tp561
a(I32
I45
I54
tp562
a(I33
I34
I36
tp563
a(I33
I34
I38
tp564
a(I33
I35
I34
tp565
a(I33
I35
I47
tp566
a(I33
I36
I41
tp567
a(I33
I36
I43
tp568
a(I33
I36
I45
tp569
a(I33
I37
I36
tp570
a(I33
I37
I38
tp571
a(I33
I37
I40
tp572
a(I33
I37
I46
tp573
a(I33
I37
I48
tp574
a(I33
I38
I41
tp575
a(I33
I38
I42
tp576
a(I33
I38
I44
tp577
a(I33
I43
I53
tp578
a(I33
I44
I48
tp579
a(I33
I44
I50
tp580
a(I33
I46
I55
tp581
a(I34
I33
I38
tp582
a(I34
I34
I34
tp583
a(I34
I35
I37
tp584
a(I34
I35
I39
tp585
a(I34
I35
I40
tp586
a(I34
I36
I33
tp587
a(I34
I36
I35
tp588
a(I34
I36
I48
tp589
a(I34
I37
I42
tp590
a(I34
I37
I44
tp591
a(I34
I37
I46
tp592
a(I34
I38
I37
tp593
a(I34
I38
I41
tp594
a(I34
I39
I33
tp595
a(I34
I39
I42
tp596
a(I34
I39
I45
tp597
a(I34
I42
I53
tp598
a(I34
I43
I52
tp599
a(I34
I44
I46
tp600
a(I34
I44
I53
tp601
a(I34
I44
I54
tp602
a(I34
I45
I47
tp603
a(I34
I45
I49
tp604
a(I34
I45
I51
tp605
a(I35
I33
I34
tp606
a(I35
I34
I39
tp607
a(I35
I35
I33
tp608
a(I35
I35
I35
tp609
a(I35
I35
I37
tp610
a(I35
I35
I43
tp611
a(I35
I35
I45
tp612
a(I35
I35
I47
tp613
a(I35
I36
I31
tp614
a(I35
I36
I38
tp615
a(I35
I36
I40
tp616
a(I35
I36
I41
tp617
a(I35
I37
I32
tp618
a(I35
I37
I34
tp619
a(I35
I37
I36
tp620
a(I35
I37
I49
tp621
a(I35
I38
I43
tp622
a(I35
I38
I45
tp623
a(I35
I38
I47
tp624
a(I35
I42
I48
tp625
a(I35
I42
I50
tp626
a(I35
I42
I52
tp627
a(I35
I43
I54
tp628
a(I35
I44
I49
tp629
a(I35
I44
I51
tp630
a(I35
I44
I53
tp631
a(I35
I45
I47
tp632
a(I35
I45
I54
tp633
a(I35
I45
I55
tp634
a(I35
I46
I48
tp635
a(I35
I46
I50
tp636
a(I35
I46
I52
tp637
a(I35
I53
I65
tp638
a(I35
I54
I68
tp639
a(I36
I33
I44
tp640
a(I36
I34
I35
tp641
a(I36
I34
I37
tp642
a(I36
I34
I39
tp643
a(I36
I34
I45
tp644
a(I36
I34
I47
tp645
a(I36
I35
I31
tp646
a(I36
I35
I33
tp647
a(I36
I35
I40
tp648
a(I36
I35
I41
tp649
a(I36
I35
I43
tp650
a(I36
I36
I34
tp651
a(I36
I36
I36
tp652
a(I36
I36
I38
tp653
a(I36
I36
I44
tp654
a(I36
I36
I46
tp655
a(I36
I36
I48
tp656
a(I36
I37
I32
tp657
a(I36
I37
I39
tp658
a(I36
I37
I41
tp659
a(I36
I37
I42
tp660
a(I36
I38
I33
tp661
a(I36
I38
I35
tp662
a(I36
I38
I37
tp663
a(I36
I42
I54
tp664
a(I36
I42
I56
tp665
a(I36
I43
I49
tp666
a(I36
I43
I51
tp667
a(I36
I43
I53
tp668
a(I36
I44
I47
tp669
a(I36
I44
I55
tp670
a(I36
I45
I50
tp671
a(I36
I45
I52
tp672
a(I36
I45
I54
tp673
a(I36
I46
I48
tp674
a(I36
I46
I55
tp675
a(I36
I51
I70
tp676
a(I37
I34
I41
tp677
a(I37
I34
I43
tp678
a(I37
I34
I45
tp679
a(I37
I35
I36
tp680
a(I37
I35
I38
tp681
a(I37
I35
I40
tp682
a(I37
I35
I46
tp683
a(I37
I35
I48
tp684
a(I37
I36
I32
tp685
a(I37
I36
I34
tp686
a(I37
I36
I41
tp687
a(I37
I36
I42
tp688
a(I37
I36
I44
tp689
a(I37
I36
I50
tp690
a(I37
I37
I35
tp691
a(I37
I37
I37
tp692
a(I37
I37
I39
tp693
a(I37
I37
I45
tp694
a(I37
I37
I47
tp695
a(I37
I38
I42
tp696
a(I37
I38
I43
tp697
a(I37
I41
I50
tp698
a(I37
I42
I48
tp699
a(I37
I43
I55
tp700
a(I37
I43
I57
tp701
a(I37
I44
I50
tp702
a(I37
I44
I52
tp703
a(I37
I44
I54
tp704
a(I37
I45
I48
tp705
a(I37
I45
I56
tp706
a(I37
I46
I51
tp707
a(I37
I46
I53
tp708
a(I37
I46
I55
tp709
a(I37
I48
I54
tp710
a(I38
I34
I33
tp711
a(I38
I34
I35
tp712
a(I38
I34
I48
tp713
a(I38
I35
I42
tp714
a(I38
I35
I44
tp715
a(I38
I35
I46
tp716
a(I38
I36
I37
tp717
a(I38
I36
I39
tp718
a(I38
I36
I41
tp719
a(I38
I36
I47
tp720
a(I38
I36
I49
tp721
a(I38
I37
I35
tp722
a(I38
I37
I42
tp723
a(I38
I37
I43
tp724
a(I38
I37
I45
tp725
a(I38
I38
I38
tp726
a(I38
I38
I48
tp727
a(I38
I42
I51
tp728
a(I38
I42
I53
tp729
a(I38
I43
I46
tp730
a(I38
I43
I47
tp731
a(I38
I43
I49
tp732
a(I38
I44
I56
tp733
a(I38
I45
I53
tp734
a(I38
I45
I55
tp735
a(I38
I51
I68
tp736
a(I39
I34
I38
tp737
a(I39
I35
I32
tp738
a(I39
I35
I34
tp739
a(I39
I35
I36
tp740
a(I39
I36
I45
tp741
a(I39
I36
I47
tp742
a(I39
I38
I44
tp743
a(I39
I41
I53
tp744
a(I39
I42
I47
tp745
a(I39
I42
I51
tp746
a(I39
I43
I52
tp747
a(I39
I43
I54
tp748
a(I39
I44
I48
tp749
a(I39
I44
I50
tp750
a(I39
I45
I43
tp751
a(I39
I52
I58
tp752
a(I39
I54
I59
tp753
a(I39
I54
I61
tp754
a(I40
I34
I44
tp755
a(I40
I35
I41
tp756
a(I40
I36
I35
tp757
a(I40
I36
I37
tp758
a(I40
I40
I48
tp759
a(I40
I42
I54
tp760
a(I40
I43
I48
tp761
a(I40
I43
I50
tp762
a(I40
I43
I52
tp763
a(I40
I44
I45
tp764
a(I40
I44
I47
tp765
a(I40
I44
I53
tp766
a(I40
I53
I59
tp767
a(I40
I53
I61
tp768
a(I40
I53
I62
tp769
a(I40
I54
I65
tp770
a(I40
I55
I62
tp771
a(I41
I42
I44
tp772
a(I41
I45
I44
tp773
a(I41
I45
I46
tp774
a(I41
I45
I48
tp775
a(I41
I46
I42
tp776
a(I41
I52
I56
tp777
a(I41
I52
I58
tp778
a(I41
I53
I65
tp779
a(I41
I54
I60
tp780
a(I41
I54
I62
tp781
a(I41
I54
I63
tp782
a(I41
I55
I58
tp783
a(I41
I55
I64
tp784
a(I42
I42
I42
tp785
a(I42
I43
I45
tp786
a(I42
I43
I47
tp787
a(I42
I44
I39
tp788
a(I42
I44
I41
tp789
a(I42
I44
I43
tp790
a(I42
I46
I45
tp791
a(I42
I46
I47
tp792
a(I42
I50
I61
tp793
a(I42
I51
I56
tp794
a(I42
I51
I58
tp795
a(I42
I51
I60
tp796
a(I42
I52
I61
tp797
a(I42
I52
I62
tp798
a(I42
I52
I64
tp799
a(I42
I53
I55
tp800
a(I42
I53
I57
tp801
a(I42
I53
I59
tp802
a(I43
I42
I47
tp803
a(I43
I43
I41
tp804
a(I43
I43
I43
tp805
a(I43
I43
I45
tp806
a(I43
I44
I39
tp807
a(I43
I44
I46
tp808
a(I43
I44
I48
tp809
a(I43
I45
I40
tp810
a(I43
I45
I42
tp811
a(I43
I45
I44
tp812
a(I43
I50
I56
tp813
a(I43
I50
I58
tp814
a(I43
I50
I60
tp815
a(I43
I51
I53
tp816
a(I43
I51
I54
tp817
a(I43
I51
I62
tp818
a(I43
I52
I57
tp819
a(I43
I52
I59
tp820
a(I43
I52
I61
tp821
a(I43
I53
I62
tp822
a(I43
I53
I63
tp823
a(I43
I53
I65
tp824
a(I43
I54
I58
tp825
a(I43
I54
I60
tp826
a(I43
I55
I55
tp827
a(I44
I42
I43
tp828
a(I44
I42
I45
tp829
a(I44
I43
I39
tp830
a(I44
I43
I41
tp831
a(I44
I43
I48
tp832
a(I44
I44
I42
tp833
a(I44
I44
I44
tp834
a(I44
I44
I46
tp835
a(I44
I45
I40
tp836
a(I44
I45
I47
tp837
a(I44
I46
I41
tp838
a(I44
I46
I43
tp839
a(I44
I46
I45
tp840
a(I44
I50
I62
tp841
a(I44
I51
I57
tp842
a(I44
I51
I59
tp843
a(I44
I51
I61
tp844
a(I44
I52
I55
tp845
a(I44
I52
I63
tp846
a(I44
I52
I65
tp847
a(I44
I53
I52
tp848
a(I44
I53
I58
tp849
a(I44
I53
I60
tp850
a(I44
I53
I62
tp851
a(I44
I54
I55
tp852
a(I44
I54
I56
tp853
a(I44
I54
I63
tp854
a(I45
I43
I44
tp855
a(I45
I43
I46
tp856
a(I45
I43
I48
tp857
a(I45
I44
I40
tp858
a(I45
I44
I42
tp859
a(I45
I44
I49
tp860
a(I45
I45
I43
tp861
a(I45
I45
I45
tp862
a(I45
I45
I47
tp863
a(I45
I46
I41
tp864
a(I45
I49
I58
tp865
a(I45
I51
I63
tp866
a(I45
I51
I65
tp867
a(I45
I52
I58
tp868
a(I45
I52
I60
tp869
a(I45
I52
I62
tp870
a(I45
I53
I55
tp871
a(I45
I53
I56
tp872
a(I45
I53
I64
tp873
a(I45
I54
I59
tp874
a(I45
I54
I61
tp875
a(I45
I54
I63
tp876
a(I46
I44
I45
tp877
a(I46
I44
I47
tp878
a(I46
I45
I41
tp879
a(I46
I45
I43
tp880
a(I46
I46
I46
tp881
a(I46
I50
I59
tp882
a(I46
I50
I61
tp883
a(I46
I51
I54
tp884
a(I46
I51
I55
tp885
a(I46
I51
I57
tp886
a(I46
I53
I59
tp887
a(I46
I53
I61
tp888
a(I46
I53
I63
tp889
a(I46
I54
I57
tp890
a(I46
I55
I64
tp891
a(I47
I42
I46
tp892
a(I47
I43
I40
tp893
a(I47
I43
I42
tp894
a(I47
I43
I44
tp895
a(I47
I50
I55
tp896
a(I47
I50
I59
tp897
a(I47
I51
I60
tp898
a(I47
I51
I62
tp899
a(I47
I51
I63
tp900
a(I47
I52
I56
tp901
a(I47
I52
I58
tp902
a(I47
I61
I70
tp903
a(I48
I44
I41
tp904
a(I48
I44
I43
tp905
a(I48
I44
I45
tp906
a(I48
I51
I56
tp907
a(I48
I51
I58
tp908
a(I48
I52
I55
tp909
a(I48
I52
I61
tp910
a(I48
I53
I56
tp911
a(I48
I54
I52
tp912
a(I48
I60
I72
tp913
a(I48
I61
I67
tp914
a(I48
I61
I69
tp915
a(I48
I61
I70
tp916
a(I48
I62
I73
tp917
a(I48
I63
I68
tp918
a(I49
I51
I50
tp919
a(I49
I52
I61
tp920
a(I49
I53
I52
tp921
a(I49
I53
I54
tp922
a(I49
I53
I56
tp923
a(I49
I59
I68
tp924
a(I49
I59
I71
tp925
a(I49
I60
I66
tp926
a(I49
I61
I73
tp927
a(I49
I62
I68
tp928
a(I49
I62
I71
tp929
a(I50
I50
I50
tp930
a(I50
I51
I53
tp931
a(I50
I51
I55
tp932
a(I50
I52
I49
tp933
a(I50
I52
I51
tp934
a(I50
I54
I55
tp935
a(I50
I58
I69
tp936
a(I50
I59
I64
tp937
a(I50
I59
I66
tp938
a(I50
I59
I68
tp939
a(I50
I60
I69
tp940
a(I50
I60
I70
tp941
a(I50
I60
I72
tp942
a(I50
I61
I63
tp943
a(I50
I61
I65
tp944
a(I50
I61
I67
tp945
a(I51
I51
I49
tp946
a(I51
I51
I51
tp947
a(I51
I51
I53
tp948
a(I51
I52
I47
tp949
a(I51
I52
I54
tp950
a(I51
I52
I56
tp951
a(I51
I53
I48
tp952
a(I51
I53
I50
tp953
a(I51
I53
I52
tp954
a(I51
I57
I69
tp955
a(I51
I58
I64
tp956
a(I51
I58
I66
tp957
a(I51
I58
I68
tp958
a(I51
I59
I70
tp959
a(I51
I60
I65
tp960
a(I51
I60
I67
tp961
a(I51
I60
I69
tp962
a(I51
I61
I63
tp963
a(I51
I61
I70
tp964
a(I51
I61
I71
tp965
a(I51
I62
I64
tp966
a(I51
I62
I66
tp967
a(I51
I62
I68
tp968
a(I52
I50
I51
tp969
a(I52
I50
I53
tp970
a(I52
I51
I49
tp971
a(I52
I51
I56
tp972
a(I52
I52
I50
tp973
a(I52
I52
I52
tp974
a(I52
I52
I54
tp975
a(I52
I53
I48
tp976
a(I52
I53
I55
tp977
a(I52
I53
I57
tp978
a(I52
I54
I51
tp979
a(I52
I54
I53
tp980
a(I52
I58
I70
tp981
a(I52
I59
I65
tp982
a(I52
I59
I67
tp983
a(I52
I59
I69
tp984
a(I52
I60
I63
tp985
a(I52
I60
I71
tp986
a(I52
I60
I73
tp987
a(I52
I61
I66
tp988
a(I52
I61
I68
tp989
a(I52
I61
I70
tp990
a(I52
I62
I64
tp991
a(I52
I62
I71
tp992
a(I52
I63
I69
tp993
a(I53
I51
I52
tp994
a(I53
I51
I54
tp995
a(I53
I51
I56
tp996
a(I53
I52
I48
tp997
a(I53
I52
I50
tp998
a(I53
I52
I57
tp999
a(I53
I53
I51
tp1000
a(I53
I53
I53
tp1001
a(I53
I53
I55
tp1002
a(I53
I54
I49
tp1003
a(I53
I57
I66
tp1004
a(I53
I57
I68
tp1005
a(I53
I58
I64
tp1006
a(I53
I59
I71
tp1007
a(I53
I60
I66
tp1008
a(I53
I60
I68
tp1009
a(I53
I60
I70
tp1010
a(I53
I61
I64
tp1011
a(I53
I61
I72
tp1012
a(I53
I62
I67
tp1013
a(I53
I62
I69
tp1014
a(I53
I62
I71
tp1015
a(I54
I50
I49
tp1016
a(I54
I50
I51
tp1017
a(I54
I52
I53
tp1018
a(I54
I52
I55
tp1019
a(I54
I53
I49
tp1020
a(I54
I53
I51
tp1021
a(I54
I54
I54
tp1022
a(I54
I58
I67
tp1023
a(I54
I58
I69
tp1024
a(I54
I59
I63
tp1025
a(I54
I59
I65
tp1026
a(I54
I60
I72
tp1027
a(I54
I61
I67
tp1028
a(I54
I61
I69
tp1029
a(I54
I61
I71
tp1030
a(I54
I77
I85
tp1031
a(I55
I50
I54
tp1032
a(I55
I50
I56
tp1033
a(I55
I51
I50
tp1034
a(I55
I51
I52
tp1035
a(I55
I53
I54
tp1036
a(I55
I58
I63
tp1037
a(I55
I58
I65
tp1038
a(I55
I58
I67
tp1039
a(I55
I59
I68
tp1040
a(I55
I59
I70
tp1041
a(I55
I59
I71
tp1042
a(I55
I60
I64
tp1043
a(I55
I60
I66
tp1044
a(I55
I62
I68
tp1045
a(I55
I78
I84
tp1046
a(I55
I79
I83
tp1047
a(I56
I51
I55
tp1048
a(I56
I52
I51
tp1049
a(I56
I52
I53
tp1050
a(I56
I59
I64
tp1051
a(I56
I59
I66
tp1052
a(I56
I59
I68
tp1053
a(I56
I60
I59
tp1054
a(I56
I60
I61
tp1055
a(I56
I60
I63
tp1056
a(I56
I60
I69
tp1057
a(I56
I60
I71
tp1058
a(I56
I60
I72
tp1059
a(I56
I61
I57
tp1060
a(I56
I61
I67
tp1061
a(I56
I69
I75
tp1062
a(I56
I69
I77
tp1063
a(I56
I69
I78
tp1064
a(I56
I76
I85
tp1065
a(I57
I57
I67
tp1066
a(I57
I61
I60
tp1067
a(I57
I61
I62
tp1068
a(I57
I61
I64
tp1069
a(I57
I62
I58
tp1070
a(I57
I62
I66
tp1071
a(I57
I67
I76
tp1072
a(I57
I68
I72
tp1073
a(I57
I68
I74
tp1074
a(I57
I70
I76
tp1075
a(I57
I70
I78
tp1076
a(I57
I70
I79
tp1077
a(I57
I71
I74
tp1078
a(I57
I74
I82
tp1079
a(I57
I74
I84
tp1080
a(I57
I75
I85
tp1081
a(I57
I75
I87
tp1082
a(I57
I76
I82
tp1083
a(I57
I76
I83
tp1084
a(I57
I77
I84
tp1085
a(I57
I77
I86
tp1086
a(I57
I78
I83
tp1087
a(I58
I57
I62
tp1088
a(I58
I58
I58
tp1089
a(I58
I58
I60
tp1090
a(I58
I59
I61
tp1091
a(I58
I59
I63
tp1092
a(I58
I60
I55
tp1093
a(I58
I60
I57
tp1094
a(I58
I60
I59
tp1095
a(I58
I62
I63
tp1096
a(I58
I62
I65
tp1097
a(I58
I66
I77
tp1098
a(I58
I67
I72
tp1099
a(I58
I67
I74
tp1100
a(I58
I67
I76
tp1101
a(I58
I68
I77
tp1102
a(I58
I68
I78
tp1103
a(I58
I69
I71
tp1104
a(I58
I69
I73
tp1105
a(I58
I69
I75
tp1106
a(I58
I74
I87
tp1107
a(I58
I75
I82
tp1108
a(I58
I75
I83
tp1109
a(I58
I75
I85
tp1110
a(I58
I76
I80
tp1111
a(I58
I76
I86
tp1112
a(I58
I76
I88
tp1113
a(I58
I76
I90
tp1114
a(I58
I77
I81
tp1115
a(I58
I77
I83
tp1116
a(I58
I77
I84
tp1117
a(I58
I78
I85
tp1118
a(I58
I79
I82
tp1119
a(I59
I58
I63
tp1120
a(I59
I59
I57
tp1121
a(I59
I59
I59
tp1122
a(I59
I59
I61
tp1123
a(I59
I60
I62
tp1124
a(I59
I60
I64
tp1125
a(I59
I61
I56
tp1126
a(I59
I61
I58
tp1127
a(I59
I61
I60
tp1128
a(I59
I66
I74
tp1129
a(I59
I67
I78
tp1130
a(I59
I67
I80
tp1131
a(I59
I68
I73
tp1132
a(I59
I68
I75
tp1133
a(I59
I68
I77
tp1134
a(I59
I69
I71
tp1135
a(I59
I69
I78
tp1136
a(I59
I69
I79
tp1137
a(I59
I69
I81
tp1138
a(I59
I70
I74
tp1139
a(I59
I70
I76
tp1140
a(I59
I73
I82
tp1141
a(I59
I75
I88
tp1142
a(I59
I76
I83
tp1143
a(I59
I76
I84
tp1144
a(I59
I76
I86
tp1145
a(I59
I77
I79
tp1146
a(I59
I77
I81
tp1147
a(I59
I77
I87
tp1148
a(I59
I77
I89
tp1149
a(I59
I77
I91
tp1150
a(I59
I78
I82
tp1151
a(I59
I78
I84
tp1152
a(I59
I78
I85
tp1153
a(I60
I58
I59
tp1154
a(I60
I58
I61
tp1155
a(I60
I58
I63
tp1156
a(I60
I59
I55
tp1157
a(I60
I59
I57
tp1158
a(I60
I59
I64
tp1159
a(I60
I60
I58
tp1160
a(I60
I60
I60
tp1161
a(I60
I60
I62
tp1162
a(I60
I61
I56
tp1163
a(I60
I61
I63
tp1164
a(I60
I61
I65
tp1165
a(I60
I62
I59
tp1166
a(I60
I62
I61
tp1167
a(I60
I66
I78
tp1168
a(I60
I67
I73
tp1169
a(I60
I67
I75
tp1170
a(I60
I67
I77
tp1171
a(I60
I68
I79
tp1172
a(I60
I68
I81
tp1173
a(I60
I69
I74
tp1174
a(I60
I69
I76
tp1175
a(I60
I69
I78
tp1176
a(I60
I70
I72
tp1177
a(I60
I70
I79
tp1178
a(I60
I70
I80
tp1179
a(I60
I71
I77
tp1180
a(I60
I73
I82
tp1181
a(I60
I74
I83
tp1182
a(I60
I74
I85
tp1183
a(I60
I75
I80
tp1184
a(I60
I75
I82
tp1185
a(I60
I76
I76
tp1186
a(I60
I76
I89
tp1187
a(I60
I77
I84
tp1188
a(I60
I77
I85
tp1189
a(I60
I77
I87
tp1190
a(I60
I78
I82
tp1191
a(I60
I78
I92
tp1192
a(I61
I57
I56
tp1193
a(I61
I58
I65
tp1194
a(I61
I59
I60
tp1195
a(I61
I59
I62
tp1196
a(I61
I59
I64
tp1197
a(I61
I60
I56
tp1198
a(I61
I60
I58
tp1199
a(I61
I60
I65
tp1200
a(I61
I61
I59
tp1201
a(I61
I61
I61
tp1202
a(I61
I61
I63
tp1203
a(I61
I67
I79
tp1204
a(I61
I67
I81
tp1205
a(I61
I68
I74
tp1206
a(I61
I68
I76
tp1207
a(I61
I68
I78
tp1208
a(I61
I69
I72
tp1209
a(I61
I69
I80
tp1210
a(I61
I70
I75
tp1211
a(I61
I70
I77
tp1212
a(I61
I70
I79
tp1213
a(I61
I74
I82
tp1214
a(I61
I74
I83
tp1215
a(I61
I75
I84
tp1216
a(I61
I75
I86
tp1217
a(I61
I75
I88
tp1218
a(I61
I76
I79
tp1219
a(I61
I76
I81
tp1220
a(I61
I76
I83
tp1221
a(I61
I78
I86
tp1222
a(I62
I58
I55
tp1223
a(I62
I58
I57
tp1224
a(I62
I60
I61
tp1225
a(I62
I60
I63
tp1226
a(I62
I61
I57
tp1227
a(I62
I61
I59
tp1228
a(I62
I62
I62
tp1229
a(I62
I62
I64
tp1230
a(I62
I66
I75
tp1231
a(I62
I66
I77
tp1232
a(I62
I67
I73
tp1233
a(I62
I68
I80
tp1234
a(I62
I69
I75
tp1235
a(I62
I69
I79
tp1236
a(I62
I74
I86
tp1237
a(I62
I75
I81
tp1238
a(I62
I75
I83
tp1239
a(I62
I75
I84
tp1240
a(I62
I76
I77
tp1241
a(I62
I76
I85
tp1242
a(I62
I76
I87
tp1243
a(I62
I76
I89
tp1244
a(I62
I77
I80
tp1245
a(I62
I77
I82
tp1246
a(I62
I77
I84
tp1247
a(I63
I59
I56
tp1248
a(I63
I59
I58
tp1249
a(I63
I59
I60
tp1250
a(I63
I61
I62
tp1251
a(I63
I66
I71
tp1252
a(I63
I67
I76
tp1253
a(I63
I67
I78
tp1254
a(I63
I68
I72
tp1255
a(I63
I68
I74
tp1256
a(I63
I69
I65
tp1257
a(I63
I73
I82
tp1258
a(I63
I75
I87
tp1259
a(I63
I76
I84
tp1260
a(I63
I76
I85
tp1261
a(I64
I58
I62
tp1262
a(I64
I60
I59
tp1263
a(I64
I66
I78
tp1264
a(I64
I67
I72
tp1265
a(I64
I67
I74
tp1266
a(I64
I68
I67
tp1267
a(I64
I68
I69
tp1268
a(I64
I68
I71
tp1269
a(I64
I69
I65
tp1270
a(I64
I69
I72
tp1271
a(I64
I69
I75
tp1272
a(I64
I74
I83
tp1273
a(I64
I74
I84
tp1274
a(I64
I75
I79
tp1275
a(I64
I83
I90
tp1276
a(I64
I84
I93
tp1277
a(I64
I85
I90
tp1278
a(I65
I66
I68
tp1279
a(I65
I67
I66
tp1280
a(I65
I68
I73
tp1281
a(I65
I69
I68
tp1282
a(I65
I69
I70
tp1283
a(I65
I69
I72
tp1284
a(I65
I70
I64
tp1285
a(I65
I70
I66
tp1286
a(I65
I83
I93
tp1287
a(I65
I84
I90
tp1288
a(I65
I84
I91
tp1289
a(I65
I85
I92
tp1290
a(I65
I85
I96
tp1291
a(I65
I86
I91
tp1292
a(I66
I66
I66
tp1293
a(I66
I67
I69
tp1294
a(I66
I67
I71
tp1295
a(I66
I68
I65
tp1296
a(I66
I68
I67
tp1297
a(I66
I70
I69
tp1298
a(I66
I70
I71
tp1299
a(I66
I82
I95
tp1300
a(I66
I83
I90
tp1301
a(I66
I83
I91
tp1302
a(I66
I83
I93
tp1303
a(I66
I84
I86
tp1304
a(I66
I84
I88
tp1305
a(I66
I84
I94
tp1306
a(I66
I84
I96
tp1307
a(I66
I85
I89
tp1308
a(I66
I85
I91
tp1309
a(I66
I85
I92
tp1310
a(I66
I86
I87
tp1311
a(I67
I65
I68
tp1312
a(I67
I66
I71
tp1313
a(I67
I67
I65
tp1314
a(I67
I67
I67
tp1315
a(I67
I67
I69
tp1316
a(I67
I68
I63
tp1317
a(I67
I68
I70
tp1318
a(I67
I68
I72
tp1319
a(I67
I69
I64
tp1320
a(I67
I69
I66
tp1321
a(I67
I69
I68
tp1322
a(I67
I83
I96
tp1323
a(I67
I84
I91
tp1324
a(I67
I84
I92
tp1325
a(I67
I84
I94
tp1326
a(I67
I85
I89
tp1327
a(I67
I85
I95
tp1328
a(I67
I85
I97
tp1329
a(I67
I86
I90
tp1330
a(I67
I86
I92
tp1331
a(I67
I86
I93
tp1332
a(I68
I66
I67
tp1333
a(I68
I66
I69
tp1334
a(I68
I67
I63
tp1335
a(I68
I67
I65
tp1336
a(I68
I67
I72
tp1337
a(I68
I68
I66
tp1338
a(I68
I68
I68
tp1339
a(I68
I68
I70
tp1340
a(I68
I69
I63
tp1341
a(I68
I69
I64
tp1342
a(I68
I69
I71
tp1343
a(I68
I69
I73
tp1344
a(I68
I70
I65
tp1345
a(I68
I70
I67
tp1346
a(I68
I70
I69
tp1347
a(I68
I82
I91
tp1348
a(I68
I82
I93
tp1349
a(I68
I83
I88
tp1350
a(I68
I83
I90
tp1351
a(I68
I84
I97
tp1352
a(I68
I85
I92
tp1353
a(I68
I85
I93
tp1354
a(I68
I85
I95
tp1355
a(I68
I86
I90
tp1356
a(I69
I67
I68
tp1357
a(I69
I67
I70
tp1358
a(I69
I67
I72
tp1359
a(I69
I68
I63
tp1360
a(I69
I68
I64
tp1361
a(I69
I68
I66
tp1362
a(I69
I68
I73
tp1363
a(I69
I69
I67
tp1364
a(I69
I69
I69
tp1365
a(I69
I69
I71
tp1366
a(I69
I70
I65
tp1367
a(I69
I71
I68
tp1368
a(I69
I71
I70
tp1369
a(I69
I82
I88
tp1370
a(I69
I82
I90
tp1371
a(I69
I82
I91
tp1372
a(I69
I83
I92
tp1373
a(I69
I83
I94
tp1374
a(I69
I83
I96
tp1375
a(I69
I84
I87
tp1376
a(I69
I84
I89
tp1377
a(I69
I84
I91
tp1378
a(I69
I86
I93
tp1379
a(I69
I86
I94
tp1380
a(I70
I66
I67
tp1381
a(I70
I68
I69
tp1382
a(I70
I68
I71
tp1383
a(I70
I69
I65
tp1384
a(I70
I69
I67
tp1385
a(I70
I70
I68
tp1386
a(I70
I70
I70
tp1387
a(I70
I82
I94
tp1388
a(I70
I83
I89
tp1389
a(I70
I83
I91
tp1390
a(I70
I83
I92
tp1391
a(I70
I84
I93
tp1392
a(I70
I84
I95
tp1393
a(I70
I84
I97
tp1394
a(I70
I85
I88
tp1395
a(I70
I85
I90
tp1396
a(I70
I85
I92
tp1397
a(I71
I66
I70
tp1398
a(I71
I67
I66
tp1399
a(I71
I67
I68
tp1400
a(I71
I81
I93
tp1401
a(I71
I83
I95
tp1402
a(I71
I84
I90
tp1403
a(I71
I84
I92
tp1404
a(I71
I84
I93
tp1405
a(I71
I85
I94
tp1406
a(I71
I86
I93
tp1407
a(I71
I95
I99
tp1408
a(I71
I95
I105
tp1409
a(I72
I68
I69
tp1410
a(I72
I83
I89
tp1411
a(I72
I85
I94
tp1412
a(I72
I90
I100
tp1413
a(I72
I92
I99
tp1414
a(I72
I92
I101
tp1415
a(I72
I92
I103
tp1416
a(I72
I93
I98
tp1417
a(I72
I94
I107
tp1418
a(I73
I75
I72
tp1419
a(I73
I77
I76
tp1420
a(I73
I77
I78
tp1421
a(I73
I78
I74
tp1422
a(I73
I82
I91
tp1423
a(I73
I83
I85
tp1424
a(I73
I83
I93
tp1425
a(I73
I84
I86
tp1426
a(I73
I91
I101
tp1427
a(I73
I91
I103
tp1428
a(I73
I92
I96
tp1429
a(I73
I92
I98
tp1430
a(I73
I92
I99
tp1431
a(I73
I92
I106
tp1432
a(I73
I93
I100
tp1433
a(I73
I93
I102
tp1434
a(I73
I93
I104
tp1435
a(I73
I94
I97
tp1436
a(I73
I94
I99
tp1437
a(I74
I74
I74
tp1438
a(I74
I75
I77
tp1439
a(I74
I75
I79
tp1440
a(I74
I76
I71
tp1441
a(I74
I76
I73
tp1442
a(I74
I76
I75
tp1443
a(I74
I78
I77
tp1444
a(I74
I78
I79
tp1445
a(I74
I78
I81
tp1446
a(I74
I90
I103
tp1447
a(I74
I91
I98
tp1448
a(I74
I91
I99
tp1449
a(I74
I91
I101
tp1450
a(I74
I92
I96
tp1451
a(I74
I92
I102
tp1452
a(I74
I92
I104
tp1453
a(I74
I92
I106
tp1454
a(I74
I93
I97
tp1455
a(I74
I93
I99
tp1456
a(I74
I93
I100
tp1457
a(I74
I93
I107
tp1458
a(I74
I94
I101
tp1459
a(I74
I94
I103
tp1460
a(I74
I95
I100
tp1461
a(I75
I75
I73
tp1462
a(I75
I75
I75
tp1463
a(I75
I75
I77
tp1464
a(I75
I76
I78
tp1465
a(I75
I76
I80
tp1466
a(I75
I77
I74
tp1467
a(I75
I77
I76
tp1468
a(I75
I89
I98
tp1469
a(I75
I89
I100
tp1470
a(I75
I90
I97
tp1471
a(I75
I91
I104
tp1472
a(I75
I91
I106
tp1473
a(I75
I92
I99
tp1474
a(I75
I92
I100
tp1475
a(I75
I92
I102
tp1476
a(I75
I93
I97
tp1477
a(I75
I93
I103
tp1478
a(I75
I93
I105
tp1479
a(I75
I93
I107
tp1480
a(I75
I94
I98
tp1481
a(I75
I94
I100
tp1482
a(I75
I94
I101
tp1483
a(I76
I74
I75
tp1484
a(I76
I74
I77
tp1485
a(I76
I75
I70
tp1486
a(I76
I75
I71
tp1487
a(I76
I75
I73
tp1488
a(I76
I75
I80
tp1489
a(I76
I76
I74
tp1490
a(I76
I76
I76
tp1491
a(I76
I76
I78
tp1492
a(I76
I77
I72
tp1493
a(I76
I77
I79
tp1494
a(I76
I77
I81
tp1495
a(I76
I78
I75
tp1496
a(I76
I78
I77
tp1497
a(I76
I90
I99
tp1498
a(I76
I90
I101
tp1499
a(I76
I90
I103
tp1500
a(I76
I91
I96
tp1501
a(I76
I91
I98
tp1502
a(I76
I92
I105
tp1503
a(I76
I93
I100
tp1504
a(I76
I93
I101
tp1505
a(I76
I93
I103
tp1506
a(I76
I94
I96
tp1507
a(I76
I94
I98
tp1508
a(I76
I95
I101
tp1509
a(I76
I95
I102
tp1510
a(I77
I75
I76
tp1511
a(I77
I75
I78
tp1512
a(I77
I75
I80
tp1513
a(I77
I76
I72
tp1514
a(I77
I76
I74
tp1515
a(I77
I76
I81
tp1516
a(I77
I77
I75
tp1517
a(I77
I77
I77
tp1518
a(I77
I77
I79
tp1519
a(I77
I78
I80
tp1520
a(I77
I89
I101
tp1521
a(I77
I90
I98
tp1522
a(I77
I90
I99
tp1523
a(I77
I91
I100
tp1524
a(I77
I91
I102
tp1525
a(I77
I91
I104
tp1526
a(I77
I92
I95
tp1527
a(I77
I92
I97
tp1528
a(I77
I92
I99
tp1529
a(I77
I93
I93
tp1530
a(I77
I93
I106
tp1531
a(I77
I94
I101
tp1532
a(I77
I94
I102
tp1533
a(I78
I73
I77
tp1534
a(I78
I74
I71
tp1535
a(I78
I74
I73
tp1536
a(I78
I74
I75
tp1537
a(I78
I76
I77
tp1538
a(I78
I76
I79
tp1539
a(I78
I77
I73
tp1540
a(I78
I77
I75
tp1541
a(I78
I78
I76
tp1542
a(I78
I78
I78
tp1543
a(I78
I90
I102
tp1544
a(I78
I90
I104
tp1545
a(I78
I91
I97
tp1546
a(I78
I91
I99
tp1547
a(I78
I91
I100
tp1548
a(I78
I92
I93
tp1549
a(I78
I92
I95
tp1550
a(I78
I92
I101
tp1551
a(I78
I92
I103
tp1552
a(I78
I92
I105
tp1553
a(I78
I93
I96
tp1554
a(I78
I93
I98
tp1555
a(I78
I93
I100
tp1556
a(I79
I74
I78
tp1557
a(I79
I74
I80
tp1558
a(I79
I75
I74
tp1559
a(I79
I75
I76
tp1560
a(I79
I77
I78
tp1561
a(I79
I77
I80
tp1562
a(I79
I91
I103
tp1563
a(I79
I91
I105
tp1564
a(I79
I92
I98
tp1565
a(I79
I92
I100
tp1566
a(I79
I92
I101
tp1567
a(I79
I93
I102
tp1568
a(I79
I94
I97
tp1569
a(I79
I94
I101
tp1570
a(I79
I101
I114
tp1571
a(I79
I102
I116
tp1572
a(I80
I76
I75
tp1573
a(I80
I84
I85
tp1574
a(I80
I90
I99
tp1575
a(I80
I91
I97
tp1576
a(I80
I101
I118
tp1577
a(I80
I102
I113
tp1578
a(I80
I102
I115
tp1579
a(I81
I85
I84
tp1580
a(I81
I85
I86
tp1581
a(I81
I85
I88
tp1582
a(I81
I86
I82
tp1583
a(I81
I100
I114
tp1584
a(I81
I100
I115
tp1585
a(I81
I100
I117
tp1586
a(I81
I101
I112
tp1587
a(I81
I102
I119
tp1588
a(I81
I103
I116
tp1589
a(I81
I103
I117
tp1590
a(I82
I82
I82
tp1591
a(I82
I83
I85
tp1592
a(I82
I83
I87
tp1593
a(I82
I84
I79
tp1594
a(I82
I84
I81
tp1595
a(I82
I84
I83
tp1596
a(I82
I86
I85
tp1597
a(I82
I99
I115
tp1598
a(I82
I99
I117
tp1599
a(I82
I100
I112
tp1600
a(I82
I100
I114
tp1601
a(I82
I100
I120
tp1602
a(I82
I101
I115
tp1603
a(I82
I101
I116
tp1604
a(I82
I101
I118
tp1605
a(I82
I102
I113
tp1606
a(I83
I81
I82
tp1607
a(I83
I81
I84
tp1608
a(I83
I82
I87
tp1609
a(I83
I83
I81
tp1610
a(I83
I83
I83
tp1611
a(I83
I83
I85
tp1612
a(I83
I84
I79
tp1613
a(I83
I84
I86
tp1614
a(I83
I84
I88
tp1615
a(I83
I85
I80
tp1616
a(I83
I85
I82
tp1617
a(I83
I85
I84
tp1618
a(I83
I98
I117
tp1619
a(I83
I99
I112
tp1620
a(I83
I99
I114
tp1621
a(I83
I99
I115
tp1622
a(I83
I100
I110
tp1623
a(I83
I100
I116
tp1624
a(I83
I100
I118
tp1625
a(I83
I100
I120
tp1626
a(I83
I101
I111
tp1627
a(I83
I101
I113
tp1628
a(I83
I101
I115
tp1629
a(I83
I102
I116
tp1630
a(I83
I102
I117
tp1631
a(I83
I102
I119
tp1632
a(I83
I103
I114
tp1633
a(I84
I82
I83
tp1634
a(I84
I82
I85
tp1635
a(I84
I83
I79
tp1636
a(I84
I83
I81
tp1637
a(I84
I83
I88
tp1638
a(I84
I84
I82
tp1639
a(I84
I84
I84
tp1640
a(I84
I84
I86
tp1641
a(I84
I85
I80
tp1642
a(I84
I85
I87
tp1643
a(I84
I85
I89
tp1644
a(I84
I86
I83
tp1645
a(I84
I86
I85
tp1646
a(I84
I99
I118
tp1647
a(I84
I99
I120
tp1648
a(I84
I100
I113
tp1649
a(I84
I100
I115
tp1650
a(I84
I100
I116
tp1651
a(I84
I101
I111
tp1652
a(I84
I101
I117
tp1653
a(I84
I101
I119
tp1654
a(I84
I101
I121
tp1655
a(I84
I102
I114
tp1656
a(I84
I102
I116
tp1657
a(I85
I82
I89
tp1658
a(I85
I83
I84
tp1659
a(I85
I83
I86
tp1660
a(I85
I83
I88
tp1661
a(I85
I84
I80
tp1662
a(I85
I84
I82
tp1663
a(I85
I85
I83
tp1664
a(I85
I85
I85
tp1665
a(I85
I85
I87
tp1666
a(I85
I86
I81
tp1667
a(I85
I98
I114
tp1668
a(I85
I98
I115
tp1669
a(I85
I98
I117
tp1670
a(I85
I99
I112
tp1671
a(I85
I100
I119
tp1672
a(I85
I101
I114
tp1673
a(I85
I101
I116
tp1674
a(I85
I101
I117
tp1675
a(I85
I102
I112
tp1676
a(I85
I102
I118
tp1677
a(I85
I103
I117
tp1678
a(I86
I82
I83
tp1679
a(I86
I84
I85
tp1680
a(I86
I84
I87
tp1681
a(I86
I84
I89
tp1682
a(I86
I85
I81
tp1683
a(I86
I85
I83
tp1684
a(I86
I86
I86
tp1685
a(I86
I97
I115
tp1686
a(I86
I98
I114
tp1687
a(I86
I98
I120
tp1688
a(I86
I99
I115
tp1689
a(I86
I99
I116
tp1690
a(I86
I99
I118
tp1691
a(I86
I100
I113
tp1692
a(I86
I102
I117
tp1693
a(I87
I82
I86
tp1694
a(I87
I83
I82
tp1695
a(I87
I83
I84
tp1696
a(I87
I85
I86
tp1697
a(I87
I85
I88
tp1698
a(I87
I98
I118
tp1699
a(I87
I99
I111
tp1700
a(I87
I99
I113
tp1701
a(I87
I99
I115
tp1702
a(I87
I100
I116
tp1703
a(I87
I100
I117
tp1704
a(I87
I100
I119
tp1705
a(I87
I101
I114
tp1706
a(I87
I108
I125
tp1707
a(I87
I110
I116
tp1708
a(I88
I84
I83
tp1709
a(I88
I84
I85
tp1710
a(I88
I92
I91
tp1711
a(I88
I100
I114
tp1712
a(I88
I101
I118
tp1713
a(I88
I109
I114
tp1714
a(I88
I109
I126
tp1715
a(I88
I109
I128
tp1716
a(I88
I110
I121
tp1717
a(I88
I110
I124
tp1718
a(I88
I115
I122
tp1719
a(I88
I116
I120
tp1720
a(I89
I93
I92
tp1721
a(I89
I93
I94
tp1722
a(I89
I107
I119
tp1723
a(I89
I107
I129
tp1724
a(I89
I108
I114
tp1725
a(I89
I108
I115
tp1726
a(I89
I108
I122
tp1727
a(I89
I108
I123
tp1728
a(I89
I108
I125
tp1729
a(I89
I109
I116
tp1730
a(I89
I109
I118
tp1731
a(I89
I109
I120
tp1732
a(I89
I110
I113
tp1733
a(I89
I110
I115
tp1734
a(I89
I110
I127
tp1735
a(I89
I116
I123
tp1736
a(I89
I116
I125
tp1737
a(I89
I116
I127
tp1738
a(I89
I117
I120
tp1739
a(I89
I117
I121
tp1740
a(I89
I118
I124
tp1741
a(I89
I118
I126
tp1742
a(I90
I90
I90
tp1743
a(I90
I91
I93
tp1744
a(I90
I91
I95
tp1745
a(I90
I92
I87
tp1746
a(I90
I92
I89
tp1747
a(I90
I92
I91
tp1748
a(I90
I94
I93
tp1749
a(I90
I94
I97
tp1750
a(I90
I95
I91
tp1751
a(I90
I106
I121
tp1752
a(I90
I107
I114
tp1753
a(I90
I107
I115
tp1754
a(I90
I107
I117
tp1755
a(I90
I107
I123
tp1756
a(I90
I107
I125
tp1757
a(I90
I108
I112
tp1758
a(I90
I108
I118
tp1759
a(I90
I108
I120
tp1760
a(I90
I108
I122
tp1761
a(I90
I108
I128
tp1762
a(I90
I109
I113
tp1763
a(I90
I109
I115
tp1764
a(I90
I109
I116
tp1765
a(I90
I109
I123
tp1766
a(I90
I109
I124
tp1767
a(I90
I109
I126
tp1768
a(I90
I110
I121
tp1769
a(I90
I114
I124
tp1770
a(I90
I115
I122
tp1771
a(I90
I116
I129
tp1772
a(I90
I117
I124
tp1773
a(I90
I117
I126
tp1774
a(I90
I117
I128
tp1775
a(I90
I118
I121
tp1776
a(I90
I118
I122
tp1777
a(I91
I91
I89
tp1778
a(I91
I91
I91
tp1779
a(I91
I91
I93
tp1780
a(I91
I92
I87
tp1781
a(I91
I92
I94
tp1782
a(I91
I92
I96
tp1783
a(I91
I93
I88
tp1784
a(I91
I93
I90
tp1785
a(I91
I93
I92
tp1786
a(I91
I106
I125
tp1787
a(I91
I106
I127
tp1788
a(I91
I107
I120
tp1789
a(I91
I107
I122
tp1790
a(I91
I107
I123
tp1791
a(I91
I108
I115
tp1792
a(I91
I108
I116
tp1793
a(I91
I108
I118
tp1794
a(I91
I108
I124
tp1795
a(I91
I108
I126
tp1796
a(I91
I108
I128
tp1797
a(I91
I109
I111
tp1798
a(I91
I109
I113
tp1799
a(I91
I109
I119
tp1800
a(I91
I109
I121
tp1801
a(I91
I109
I123
tp1802
a(I91
I110
I116
tp1803
a(I91
I110
I117
tp1804
a(I91
I110
I124
tp1805
a(I91
I110
I125
tp1806
a(I91
I110
I127
tp1807
a(I91
I114
I120
tp1808
a(I91
I114
I122
tp1809
a(I91
I115
I119
tp1810
a(I91
I115
I125
tp1811
a(I91
I115
I127
tp1812
a(I91
I116
I120
tp1813
a(I91
I116
I121
tp1814
a(I91
I116
I123
tp1815
a(I91
I117
I118
tp1816
a(I91
I117
I130
tp1817
a(I91
I118
I125
tp1818
a(I91
I118
I127
tp1819
a(I91
I118
I129
tp1820
a(I91
I119
I122
tp1821
a(I91
I119
I123
tp1822
a(I92
I90
I91
tp1823
a(I92
I90
I93
tp1824
a(I92
I90
I95
tp1825
a(I92
I91
I89
tp1826
a(I92
I91
I96
tp1827
a(I92
I91
I97
tp1828
a(I92
I92
I90
tp1829
a(I92
I92
I92
tp1830
a(I92
I92
I94
tp1831
a(I92
I93
I88
tp1832
a(I92
I93
I95
tp1833
a(I92
I93
I97
tp1834
a(I92
I94
I91
tp1835
a(I92
I94
I93
tp1836
a(I92
I106
I115
tp1837
a(I92
I106
I117
tp1838
a(I92
I107
I114
tp1839
a(I92
I107
I126
tp1840
a(I92
I107
I128
tp1841
a(I92
I108
I121
tp1842
a(I92
I108
I123
tp1843
a(I92
I108
I124
tp1844
a(I92
I109
I116
tp1845
a(I92
I109
I117
tp1846
a(I92
I109
I119
tp1847
a(I92
I109
I125
tp1848
a(I92
I109
I127
tp1849
a(I92
I109
I129
tp1850
a(I92
I110
I122
tp1851
a(I92
I110
I124
tp1852
a(I92
I111
I125
tp1853
a(I92
I114
I125
tp1854
a(I92
I114
I127
tp1855
a(I92
I114
I128
tp1856
a(I92
I115
I121
tp1857
a(I92
I115
I123
tp1858
a(I92
I115
I129
tp1859
a(I92
I116
I126
tp1860
a(I92
I116
I128
tp1861
a(I92
I117
I121
tp1862
a(I92
I117
I122
tp1863
a(I92
I117
I124
tp1864
a(I92
I118
I119
tp1865
a(I93
I89
I90
tp1866
a(I93
I91
I92
tp1867
a(I93
I91
I94
tp1868
a(I93
I92
I88
tp1869
a(I93
I92
I90
tp1870
a(I93
I93
I91
tp1871
a(I93
I93
I93
tp1872
a(I93
I93
I95
tp1873
a(I93
I94
I89
tp1874
a(I93
I106
I114
tp1875
a(I93
I106
I115
tp1876
a(I93
I106
I122
tp1877
a(I93
I106
I123
tp1878
a(I93
I106
I125
tp1879
a(I93
I107
I116
tp1880
a(I93
I107
I118
tp1881
a(I93
I107
I120
tp1882
a(I93
I108
I113
tp1883
a(I93
I108
I115
tp1884
a(I93
I108
I127
tp1885
a(I93
I108
I129
tp1886
a(I93
I109
I122
tp1887
a(I93
I109
I124
tp1888
a(I93
I109
I125
tp1889
a(I93
I110
I120
tp1890
a(I93
I110
I128
tp1891
a(I93
I111
I125
tp1892
a(I93
I113
I122
tp1893
a(I93
I114
I131
tp1894
a(I93
I115
I126
tp1895
a(I93
I115
I128
tp1896
a(I93
I115
I129
tp1897
a(I93
I116
I122
tp1898
a(I93
I116
I124
tp1899
a(I93
I117
I119
tp1900
a(I93
I117
I121
tp1901
a(I93
I117
I127
tp1902
a(I93
I117
I129
tp1903
a(I93
I118
I122
tp1904
a(I93
I118
I123
tp1905
a(I93
I118
I125
tp1906
a(I94
I89
I93
tp1907
a(I94
I90
I89
tp1908
a(I94
I90
I91
tp1909
a(I94
I91
I98
tp1910
a(I94
I92
I93
tp1911
a(I94
I92
I95
tp1912
a(I94
I93
I91
tp1913
a(I94
I94
I94
tp1914
a(I94
I105
I123
tp1915
a(I94
I106
I122
tp1916
a(I94
I107
I113
tp1917
a(I94
I107
I115
tp1918
a(I94
I107
I116
tp1919
a(I94
I107
I123
tp1920
a(I94
I107
I124
tp1921
a(I94
I107
I126
tp1922
a(I94
I108
I109
tp1923
a(I94
I108
I111
tp1924
a(I94
I108
I117
tp1925
a(I94
I108
I119
tp1926
a(I94
I108
I121
tp1927
a(I94
I109
I114
tp1928
a(I94
I109
I116
tp1929
a(I94
I110
I123
tp1930
a(I94
I110
I126
tp1931
a(I94
I113
I127
tp1932
a(I94
I113
I128
tp1933
a(I94
I114
I121
tp1934
a(I94
I114
I123
tp1935
a(I94
I114
I125
tp1936
a(I94
I115
I118
tp1937
a(I94
I116
I127
tp1938
a(I94
I116
I129
tp1939
a(I94
I117
I123
tp1940
a(I94
I117
I125
tp1941
a(I95
I90
I94
tp1942
a(I95
I91
I88
tp1943
a(I95
I91
I90
tp1944
a(I95
I91
I92
tp1945
a(I95
I106
I124
tp1946
a(I95
I106
I128
tp1947
a(I95
I107
I119
tp1948
a(I95
I107
I123
tp1949
a(I95
I107
I129
tp1950
a(I95
I108
I117
tp1951
a(I95
I108
I124
tp1952
a(I95
I108
I125
tp1953
a(I95
I108
I127
tp1954
a(I95
I109
I122
tp1955
a(I95
I112
I120
tp1956
a(I95
I113
I123
tp1957
a(I95
I113
I127
tp1958
a(I95
I114
I121
tp1959
a(I95
I114
I128
tp1960
a(I95
I114
I129
tp1961
a(I95
I115
I122
tp1962
a(I95
I115
I124
tp1963
a(I95
I115
I126
tp1964
a(I96
I92
I93
tp1965
a(I96
I100
I99
tp1966
a(I96
I107
I127
tp1967
a(I96
I114
I124
tp1968
a(I96
I115
I122
tp1969
a(I96
I115
I129
tp1970
a(I96
I116
I123
tp1971
a(I96
I116
I125
tp1972
a(I96
I116
I127
tp1973
a(I96
I123
I140
tp1974
a(I96
I124
I135
tp1975
a(I96
I124
I138
tp1976
a(I96
I124
I145
tp1977
a(I96
I125
I141
tp1978
a(I96
I126
I137
tp1979
a(I96
I128
I139
tp1980
a(I97
I101
I100
tp1981
a(I97
I101
I104
tp1982
a(I97
I102
I98
tp1983
a(I97
I114
I122
tp1984
a(I97
I115
I125
tp1985
a(I97
I123
I136
tp1986
a(I97
I123
I138
tp1987
a(I97
I124
I141
tp1988
a(I97
I124
I143
tp1989
a(I97
I125
I136
tp1990
a(I97
I125
I137
tp1991
a(I97
I125
I139
tp1992
a(I97
I127
I138
tp1993
a(I98
I98
I98
tp1994
a(I98
I99
I101
tp1995
a(I98
I99
I103
tp1996
a(I98
I100
I95
tp1997
a(I98
I100
I97
tp1998
a(I98
I100
I99
tp1999
a(I98
I122
I146
tp2000
a(I98
I123
I143
tp2001
a(I98
I123
I145
tp2002
a(I98
I124
I137
tp2003
a(I98
I124
I139
tp2004
a(I98
I124
I141
tp2005
a(I98
I125
I136
tp2006
a(I98
I125
I142
tp2007
a(I98
I125
I144
tp2008
a(I98
I126
I137
tp2009
a(I98
I126
I138
tp2010
a(I98
I126
I140
tp2011
a(I99
I99
I97
tp2012
a(I99
I99
I99
tp2013
a(I99
I99
I101
tp2014
a(I99
I100
I95
tp2015
a(I99
I100
I102
tp2016
a(I99
I100
I104
tp2017
a(I99
I101
I98
tp2018
a(I99
I101
I100
tp2019
a(I99
I102
I95
tp2020
a(I99
I122
I136
tp2021
a(I99
I122
I138
tp2022
a(I99
I122
I140
tp2023
a(I99
I123
I135
tp2024
a(I99
I124
I144
tp2025
a(I99
I124
I146
tp2026
a(I99
I125
I138
tp2027
a(I99
I125
I140
tp2028
a(I99
I125
I142
tp2029
a(I99
I126
I135
tp2030
a(I99
I126
I137
tp2031
a(I99
I126
I143
tp2032
a(I99
I127
I141
tp2033
a(I100
I98
I99
tp2034
a(I100
I98
I101
tp2035
a(I100
I99
I97
tp2036
a(I100
I99
I104
tp2037
a(I100
I100
I98
tp2038
a(I100
I100
I100
tp2039
a(I100
I100
I102
tp2040
a(I100
I101
I96
tp2041
a(I100
I101
I103
tp2042
a(I100
I102
I99
tp2043
a(I100
I102
I101
tp2044
a(I100
I121
I138
tp2045
a(I100
I121
I140
tp2046
a(I100
I122
I135
tp2047
a(I100
I122
I136
tp2048
a(I100
I122
I143
tp2049
a(I100
I122
I145
tp2050
a(I100
I123
I137
tp2051
a(I100
I123
I139
tp2052
a(I100
I123
I141
tp2053
a(I100
I124
I136
tp2054
a(I100
I125
I145
tp2055
a(I100
I126
I139
tp2056
a(I100
I126
I141
tp2057
a(I100
I126
I143
tp2058
a(I100
I128
I140
tp2059
a(I101
I99
I100
tp2060
a(I101
I99
I102
tp2061
a(I101
I99
I104
tp2062
a(I101
I100
I98
tp2063
a(I101
I100
I105
tp2064
a(I101
I101
I99
tp2065
a(I101
I101
I101
tp2066
a(I101
I101
I103
tp2067
a(I101
I102
I97
tp2068
a(I101
I122
I139
tp2069
a(I101
I122
I141
tp2070
a(I101
I123
I136
tp2071
a(I101
I123
I137
tp2072
a(I101
I123
I144
tp2073
a(I101
I123
I146
tp2074
a(I101
I124
I138
tp2075
a(I101
I124
I140
tp2076
a(I101
I124
I142
tp2077
a(I101
I125
I137
tp2078
a(I102
I100
I101
tp2079
a(I102
I101
I99
tp2080
a(I102
I102
I102
tp2081
a(I102
I123
I140
tp2082
a(I102
I123
I142
tp2083
a(I102
I123
I144
tp2084
a(I102
I124
I137
tp2085
a(I102
I124
I138
tp2086
a(I102
I124
I145
tp2087
a(I102
I125
I139
tp2088
a(I102
I125
I141
tp2089
a(I102
I125
I143
tp2090
a(I102
I126
I138
tp2091
a(I102
I133
I151
tp2092
a(I103
I98
I102
tp2093
a(I103
I99
I96
tp2094
a(I103
I99
I98
tp2095
a(I103
I99
I100
tp2096
a(I103
I121
I141
tp2097
a(I103
I122
I137
tp2098
a(I103
I122
I139
tp2099
a(I103
I124
I141
tp2100
a(I103
I125
I138
tp2101
a(I103
I125
I139
tp2102
a(I103
I126
I140
tp2103
a(I103
I131
I153
tp2104
a(I104
I108
I107
tp2105
a(I104
I108
I109
tp2106
a(I104
I108
I111
tp2107
a(I104
I110
I108
tp2108
a(I104
I122
I142
tp2109
a(I104
I123
I137
tp2110
a(I104
I123
I138
tp2111
a(I104
I123
I140
tp2112
a(I104
I131
I148
tp2113
a(I104
I132
I146
tp2114
a(I104
I133
I149
tp2115
a(I104
I133
I151
tp2116
a(I104
I134
I144
tp2117
a(I105
I106
I108
tp2118
a(I105
I109
I108
tp2119
a(I105
I109
I110
tp2120
a(I105
I109
I112
tp2121
a(I105
I110
I106
tp2122
a(I105
I124
I141
tp2123
a(I105
I131
I144
tp2124
a(I105
I131
I146
tp2125
a(I105
I131
I148
tp2126
a(I105
I132
I149
tp2127
a(I105
I132
I151
tp2128
a(I105
I133
I144
tp2129
a(I105
I133
I145
tp2130
a(I105
I133
I147
tp2131
a(I105
I134
I148
tp2132
a(I105
I134
I150
tp2133
a(I105
I134
I152
tp2134
a(I105
I135
I146
tp2135
a(I106
I106
I106
tp2136
a(I106
I107
I109
tp2137
a(I106
I107
I111
tp2138
a(I106
I108
I103
tp2139
a(I106
I108
I105
tp2140
a(I106
I108
I107
tp2141
a(I106
I110
I109
tp2142
a(I106
I131
I151
tp2143
a(I106
I132
I145
tp2144
a(I106
I132
I147
tp2145
a(I106
I132
I149
tp2146
a(I106
I133
I144
tp2147
a(I106
I133
I150
tp2148
a(I106
I133
I152
tp2149
a(I106
I134
I145
tp2150
a(I106
I134
I146
tp2151
a(I106
I134
I148
tp2152
a(I107
I106
I111
tp2153
a(I107
I107
I105
tp2154
a(I107
I107
I107
tp2155
a(I107
I107
I109
tp2156
a(I107
I108
I103
tp2157
a(I107
I108
I110
tp2158
a(I107
I108
I112
tp2159
a(I107
I109
I104
tp2160
a(I107
I109
I106
tp2161
a(I107
I109
I108
tp2162
a(I107
I130
I144
tp2163
a(I107
I130
I146
tp2164
a(I107
I130
I148
tp2165
a(I107
I131
I143
tp2166
a(I107
I132
I152
tp2167
a(I107
I132
I154
tp2168
a(I107
I133
I146
tp2169
a(I107
I133
I148
tp2170
a(I107
I133
I150
tp2171
a(I107
I134
I145
tp2172
a(I107
I134
I151
tp2173
a(I107
I135
I147
tp2174
a(I107
I135
I149
tp2175
a(I108
I106
I107
tp2176
a(I108
I106
I109
tp2177
a(I108
I106
I111
tp2178
a(I108
I107
I105
tp2179
a(I108
I107
I112
tp2180
a(I108
I108
I106
tp2181
a(I108
I108
I108
tp2182
a(I108
I108
I110
tp2183
a(I108
I109
I104
tp2184
a(I108
I109
I111
tp2185
a(I108
I109
I113
tp2186
a(I108
I110
I107
tp2187
a(I108
I110
I109
tp2188
a(I108
I129
I146
tp2189
a(I108
I129
I148
tp2190
a(I108
I130
I143
tp2191
a(I108
I130
I144
tp2192
a(I108
I130
I151
tp2193
a(I108
I130
I153
tp2194
a(I108
I131
I145
tp2195
a(I108
I131
I147
tp2196
a(I108
I131
I149
tp2197
a(I108
I132
I144
tp2198
a(I108
I133
I153
tp2199
a(I108
I134
I147
tp2200
a(I108
I134
I149
tp2201
a(I108
I134
I151
tp2202
a(I109
I107
I108
tp2203
a(I109
I107
I110
tp2204
a(I109
I107
I112
tp2205
a(I109
I108
I104
tp2206
a(I109
I108
I106
tp2207
a(I109
I108
I113
tp2208
a(I109
I109
I107
tp2209
a(I109
I109
I109
tp2210
a(I109
I109
I111
tp2211
a(I109
I130
I147
tp2212
a(I109
I130
I149
tp2213
a(I109
I130
I151
tp2214
a(I109
I131
I142
tp2215
a(I109
I131
I144
tp2216
a(I109
I131
I145
tp2217
a(I109
I131
I152
tp2218
a(I109
I132
I146
tp2219
a(I109
I132
I148
tp2220
a(I109
I132
I150
tp2221
a(I109
I133
I145
tp2222
a(I110
I106
I103
tp2223
a(I110
I106
I105
tp2224
a(I110
I108
I109
tp2225
a(I110
I108
I111
tp2226
a(I110
I109
I105
tp2227
a(I110
I109
I107
tp2228
a(I110
I110
I110
tp2229
a(I110
I129
I144
tp2230
a(I110
I131
I148
tp2231
a(I110
I131
I150
tp2232
a(I110
I132
I145
tp2233
a(I110
I132
I146
tp2234
a(I110
I132
I153
tp2235
a(I110
I133
I147
tp2236
a(I110
I133
I149
tp2237
a(I110
I133
I151
tp2238
a(I110
I134
I146
tp2239
a(I111
I106
I110
tp2240
a(I111
I107
I104
tp2241
a(I111
I107
I106
tp2242
a(I111
I107
I108
tp2243
a(I111
I110
I108
tp2244
a(I111
I129
I149
tp2245
a(I111
I130
I145
tp2246
a(I111
I130
I147
tp2247
a(I111
I132
I149
tp2248
a(I111
I132
I151
tp2249
a(I111
I133
I146
tp2250
a(I111
I133
I147
tp2251
a(I111
I134
I150
tp2252
a(I111
I141
I165
tp2253
a(I111
I142
I162
tp2254
a(I111
I142
I163
tp2255
a(I112
I108
I109
tp2256
a(I112
I116
I115
tp2257
a(I112
I130
I150
tp2258
a(I112
I131
I146
tp2259
a(I112
I131
I148
tp2260
a(I112
I140
I162
tp2261
a(I112
I142
I166
tp2262
a(I112
I148
I162
tp2263
a(I112
I148
I164
tp2264
a(I112
I149
I158
tp2265
a(I112
I149
I165
tp2266
a(I112
I150
I161
tp2267
a(I112
I150
I163
tp2268
a(I113
I117
I116
tp2269
a(I113
I117
I118
tp2270
a(I113
I117
I120
tp2271
a(I113
I130
I148
tp2272
a(I113
I132
I149
tp2273
a(I113
I139
I162
tp2274
a(I113
I139
I164
tp2275
a(I113
I139
I166
tp2276
a(I113
I140
I161
tp2277
a(I113
I140
I167
tp2278
a(I113
I140
I169
tp2279
a(I113
I141
I162
tp2280
a(I113
I141
I163
tp2281
a(I113
I141
I165
tp2282
a(I113
I142
I160
tp2283
a(I113
I147
I172
tp2284
a(I113
I147
I174
tp2285
a(I113
I148
I167
tp2286
a(I113
I149
I161
tp2287
a(I113
I149
I163
tp2288
a(I113
I149
I165
tp2289
a(I113
I150
I159
tp2290
a(I113
I150
I168
tp2291
a(I113
I151
I164
tp2292
a(I114
I114
I112
tp2293
a(I114
I114
I114
tp2294
a(I114
I115
I117
tp2295
a(I114
I115
I119
tp2296
a(I114
I116
I113
tp2297
a(I114
I116
I115
tp2298
a(I114
I118
I117
tp2299
a(I114
I138
I162
tp2300
a(I114
I138
I164
tp2301
a(I114
I139
I159
tp2302
a(I114
I139
I161
tp2303
a(I114
I139
I169
tp2304
a(I114
I140
I163
tp2305
a(I114
I140
I165
tp2306
a(I114
I140
I167
tp2307
a(I114
I141
I160
tp2308
a(I114
I141
I162
tp2309
a(I114
I141
I168
tp2310
a(I114
I141
I170
tp2311
a(I114
I142
I163
tp2312
a(I114
I142
I164
tp2313
a(I114
I142
I166
tp2314
a(I114
I147
I162
tp2315
a(I114
I147
I164
tp2316
a(I114
I148
I160
tp2317
a(I114
I148
I173
tp2318
a(I114
I148
I175
tp2319
a(I114
I149
I168
tp2320
a(I114
I149
I171
tp2321
a(I114
I150
I162
tp2322
a(I114
I150
I164
tp2323
a(I114
I150
I166
tp2324
a(I114
I151
I170
tp2325
a(I115
I113
I114
tp2326
a(I115
I114
I119
tp2327
a(I115
I115
I113
tp2328
a(I115
I115
I115
tp2329
a(I115
I115
I117
tp2330
a(I115
I116
I111
tp2331
a(I115
I116
I118
tp2332
a(I115
I116
I120
tp2333
a(I115
I117
I112
tp2334
a(I115
I117
I114
tp2335
a(I115
I117
I116
tp2336
a(I115
I138
I169
tp2337
a(I115
I139
I163
tp2338
a(I115
I139
I165
tp2339
a(I115
I139
I167
tp2340
a(I115
I140
I160
tp2341
a(I115
I140
I162
tp2342
a(I115
I140
I170
tp2343
a(I115
I141
I164
tp2344
a(I115
I141
I166
tp2345
a(I115
I141
I168
tp2346
a(I115
I142
I161
tp2347
a(I115
I142
I163
tp2348
a(I115
I143
I165
tp2349
a(I115
I146
I164
tp2350
a(I115
I146
I166
tp2351
a(I115
I147
I160
tp2352
a(I115
I147
I162
tp2353
a(I115
I147
I168
tp2354
a(I115
I147
I170
tp2355
a(I115
I148
I163
tp2356
a(I115
I148
I165
tp2357
a(I115
I148
I167
tp2358
a(I115
I149
I161
tp2359
a(I115
I149
I176
tp2360
a(I115
I150
I170
tp2361
a(I115
I150
I172
tp2362
a(I116
I114
I115
tp2363
a(I116
I114
I117
tp2364
a(I116
I115
I113
tp2365
a(I116
I115
I120
tp2366
a(I116
I116
I114
tp2367
a(I116
I116
I116
tp2368
a(I116
I116
I118
tp2369
a(I116
I117
I112
tp2370
a(I116
I117
I119
tp2371
a(I116
I117
I121
tp2372
a(I116
I118
I115
tp2373
a(I116
I118
I117
tp2374
a(I116
I138
I162
tp2375
a(I116
I140
I164
tp2376
a(I116
I140
I166
tp2377
a(I116
I140
I168
tp2378
a(I116
I141
I161
tp2379
a(I116
I141
I163
tp2380
a(I116
I141
I171
tp2381
a(I116
I142
I165
tp2382
a(I116
I142
I167
tp2383
a(I116
I143
I164
tp2384
a(I116
I146
I170
tp2385
a(I116
I146
I172
tp2386
a(I116
I147
I165
tp2387
a(I116
I147
I167
tp2388
a(I116
I147
I168
tp2389
a(I116
I147
I175
tp2390
a(I116
I148
I159
tp2391
a(I116
I148
I161
tp2392
a(I116
I148
I163
tp2393
a(I116
I148
I169
tp2394
a(I116
I148
I171
tp2395
a(I116
I148
I173
tp2396
a(I116
I149
I164
tp2397
a(I116
I149
I166
tp2398
a(I116
I149
I168
tp2399
a(I116
I150
I160
tp2400
a(I116
I150
I162
tp2401
a(I117
I115
I116
tp2402
a(I117
I115
I118
tp2403
a(I117
I115
I120
tp2404
a(I117
I116
I112
tp2405
a(I117
I116
I114
tp2406
a(I117
I116
I121
tp2407
a(I117
I117
I115
tp2408
a(I117
I117
I117
tp2409
a(I117
I117
I119
tp2410
a(I117
I137
I161
tp2411
a(I117
I138
I165
tp2412
a(I117
I138
I167
tp2413
a(I117
I139
I160
tp2414
a(I117
I139
I162
tp2415
a(I117
I139
I163
tp2416
a(I117
I140
I158
tp2417
a(I117
I141
I165
tp2418
a(I117
I141
I167
tp2419
a(I117
I141
I169
tp2420
a(I117
I142
I162
tp2421
a(I117
I142
I164
tp2422
a(I117
I145
I166
tp2423
a(I117
I146
I162
tp2424
a(I117
I146
I164
tp2425
a(I117
I147
I171
tp2426
a(I117
I147
I173
tp2427
a(I117
I147
I175
tp2428
a(I117
I148
I166
tp2429
a(I117
I148
I168
tp2430
a(I117
I148
I169
tp2431
a(I117
I149
I162
tp2432
a(I117
I149
I164
tp2433
a(I117
I149
I170
tp2434
a(I117
I149
I172
tp2435
a(I117
I149
I174
tp2436
a(I117
I150
I167
tp2437
a(I118
I116
I117
tp2438
a(I118
I116
I119
tp2439
a(I118
I116
I121
tp2440
a(I118
I117
I113
tp2441
a(I118
I117
I115
tp2442
a(I118
I118
I118
tp2443
a(I118
I119
I114
tp2444
a(I118
I138
I162
tp2445
a(I118
I138
I163
tp2446
a(I118
I138
I165
tp2447
a(I118
I139
I160
tp2448
a(I118
I139
I166
tp2449
a(I118
I139
I168
tp2450
a(I118
I140
I161
tp2451
a(I118
I140
I163
tp2452
a(I118
I140
I164
tp2453
a(I118
I141
I159
tp2454
a(I118
I145
I162
tp2455
a(I118
I145
I166
tp2456
a(I118
I146
I167
tp2457
a(I118
I146
I168
tp2458
a(I118
I147
I161
tp2459
a(I118
I147
I163
tp2460
a(I118
I147
I165
tp2461
a(I118
I148
I159
tp2462
a(I118
I148
I172
tp2463
a(I118
I148
I174
tp2464
a(I118
I148
I176
tp2465
a(I118
I149
I167
tp2466
a(I118
I150
I165
tp2467
a(I118
I150
I173
tp2468
a(I119
I114
I118
tp2469
a(I119
I115
I114
tp2470
a(I119
I115
I116
tp2471
a(I119
I117
I118
tp2472
a(I119
I138
I168
tp2473
a(I119
I139
I163
tp2474
a(I119
I139
I164
tp2475
a(I119
I139
I166
tp2476
a(I119
I140
I161
tp2477
a(I119
I140
I167
tp2478
a(I119
I141
I162
tp2479
a(I119
I141
I164
tp2480
a(I119
I141
I165
tp2481
a(I119
I146
I163
tp2482
a(I119
I146
I165
tp2483
a(I119
I146
I173
tp2484
a(I119
I147
I161
tp2485
a(I119
I147
I168
tp2486
a(I119
I147
I169
tp2487
a(I119
I148
I162
tp2488
a(I119
I148
I164
tp2489
a(I119
I148
I166
tp2490
a(I119
I149
I173
tp2491
a(I119
I149
I175
tp2492
a(I119
I156
I182
tp2493
a(I120
I115
I119
tp2494
a(I120
I116
I117
tp2495
a(I120
I124
I123
tp2496
a(I120
I124
I127
tp2497
a(I120
I125
I121
tp2498
a(I120
I140
I164
tp2499
a(I120
I145
I165
tp2500
a(I120
I146
I161
tp2501
a(I120
I147
I164
tp2502
a(I120
I147
I166
tp2503
a(I120
I148
I169
tp2504
a(I120
I148
I172
tp2505
a(I120
I149
I167
tp2506
a(I120
I150
I174
tp2507
a(I120
I150
I178
tp2508
a(I120
I151
I171
tp2509
a(I120
I151
I172
tp2510
a(I120
I154
I179
tp2511
a(I120
I155
I175
tp2512
a(I120
I155
I183
tp2513
a(I121
I123
I120
tp2514
a(I121
I125
I124
tp2515
a(I121
I125
I126
tp2516
a(I121
I139
I163
tp2517
a(I121
I147
I170
tp2518
a(I121
I147
I172
tp2519
a(I121
I147
I174
tp2520
a(I121
I148
I175
tp2521
a(I121
I148
I177
tp2522
a(I121
I149
I170
tp2523
a(I121
I149
I171
tp2524
a(I121
I149
I173
tp2525
a(I121
I155
I180
tp2526
a(I121
I155
I182
tp2527
a(I121
I156
I178
tp2528
a(I121
I156
I184
tp2529
a(I121
I157
I179
tp2530
a(I121
I157
I181
tp2531
a(I121
I157
I183
tp2532
a(I121
I158
I176
tp2533
a(I121
I158
I177
tp2534
a(I122
I122
I124
tp2535
a(I122
I123
I125
tp2536
a(I122
I124
I121
tp2537
a(I122
I124
I123
tp2538
a(I122
I146
I170
tp2539
a(I122
I146
I172
tp2540
a(I122
I147
I169
tp2541
a(I122
I147
I177
tp2542
a(I122
I148
I171
tp2543
a(I122
I148
I173
tp2544
a(I122
I148
I175
tp2545
a(I122
I149
I168
tp2546
a(I122
I149
I170
tp2547
a(I122
I149
I176
tp2548
a(I122
I149
I178
tp2549
a(I122
I150
I171
tp2550
a(I122
I150
I172
tp2551
a(I122
I150
I174
tp2552
a(I122
I154
I177
tp2553
a(I122
I156
I181
tp2554
a(I122
I156
I183
tp2555
a(I122
I156
I184
tp2556
a(I122
I157
I176
tp2557
a(I122
I157
I177
tp2558
a(I122
I157
I179
tp2559
a(I122
I158
I180
tp2560
a(I122
I158
I182
tp2561
a(I123
I121
I122
tp2562
a(I123
I122
I127
tp2563
a(I123
I123
I121
tp2564
a(I123
I123
I123
tp2565
a(I123
I123
I125
tp2566
a(I123
I124
I126
tp2567
a(I123
I124
I128
tp2568
a(I123
I125
I122
tp2569
a(I123
I125
I124
tp2570
a(I123
I147
I171
tp2571
a(I123
I147
I173
tp2572
a(I123
I147
I175
tp2573
a(I123
I148
I168
tp2574
a(I123
I148
I170
tp2575
a(I123
I148
I178
tp2576
a(I123
I149
I172
tp2577
a(I123
I149
I174
tp2578
a(I123
I149
I176
tp2579
a(I123
I150
I169
tp2580
a(I123
I150
I171
tp2581
a(I123
I151
I173
tp2582
a(I123
I151
I175
tp2583
a(I123
I154
I182
tp2584
a(I123
I154
I183
tp2585
a(I123
I155
I176
tp2586
a(I123
I155
I178
tp2587
a(I123
I155
I180
tp2588
a(I123
I157
I182
tp2589
a(I123
I157
I184
tp2590
a(I123
I157
I185
tp2591
a(I123
I158
I178
tp2592
a(I123
I158
I180
tp2593
a(I124
I122
I123
tp2594
a(I124
I123
I119
tp2595
a(I124
I123
I121
tp2596
a(I124
I123
I128
tp2597
a(I124
I124
I122
tp2598
a(I124
I124
I124
tp2599
a(I124
I124
I126
tp2600
a(I124
I125
I120
tp2601
a(I124
I125
I127
tp2602
a(I124
I126
I125
tp2603
a(I124
I145
I172
tp2604
a(I124
I145
I174
tp2605
a(I124
I146
I170
tp2606
a(I124
I148
I172
tp2607
a(I124
I148
I174
tp2608
a(I124
I148
I176
tp2609
a(I124
I149
I169
tp2610
a(I124
I149
I171
tp2611
a(I124
I150
I173
tp2612
a(I124
I150
I175
tp2613
a(I124
I151
I170
tp2614
a(I124
I154
I178
tp2615
a(I124
I154
I180
tp2616
a(I124
I155
I176
tp2617
a(I124
I155
I183
tp2618
a(I124
I155
I184
tp2619
a(I124
I156
I177
tp2620
a(I124
I156
I179
tp2621
a(I124
I156
I181
tp2622
a(I124
I157
I176
tp2623
a(I124
I158
I183
tp2624
a(I125
I123
I124
tp2625
a(I125
I123
I126
tp2626
a(I125
I123
I128
tp2627
a(I125
I124
I120
tp2628
a(I125
I124
I122
tp2629
a(I125
I125
I123
tp2630
a(I125
I125
I125
tp2631
a(I125
I125
I127
tp2632
a(I125
I146
I173
tp2633
a(I125
I146
I175
tp2634
a(I125
I147
I168
tp2635
a(I125
I147
I170
tp2636
a(I125
I147
I171
tp2637
a(I125
I149
I173
tp2638
a(I125
I149
I175
tp2639
a(I125
I149
I177
tp2640
a(I125
I150
I172
tp2641
a(I125
I155
I179
tp2642
a(I125
I155
I181
tp2643
a(I125
I155
I183
tp2644
a(I125
I156
I177
tp2645
a(I125
I156
I184
tp2646
a(I125
I157
I178
tp2647
a(I125
I157
I180
tp2648
a(I125
I157
I182
tp2649
a(I126
I122
I121
tp2650
a(I126
I124
I125
tp2651
a(I126
I124
I127
tp2652
a(I126
I125
I121
tp2653
a(I126
I125
I123
tp2654
a(I126
I126
I126
tp2655
a(I126
I146
I170
tp2656
a(I126
I146
I171
tp2657
a(I126
I147
I174
tp2658
a(I126
I147
I176
tp2659
a(I126
I148
I169
tp2660
a(I126
I148
I171
tp2661
a(I126
I148
I172
tp2662
a(I126
I154
I178
tp2663
a(I126
I155
I185
tp2664
a(I126
I156
I180
tp2665
a(I126
I156
I182
tp2666
a(I126
I156
I184
tp2667
a(I126
I157
I178
tp2668
a(I126
I158
I181
tp2669
a(I126
I158
I183
tp2670
a(I126
I183
I228
tp2671
a(I127
I123
I120
tp2672
a(I127
I123
I124
tp2673
a(I127
I126
I124
tp2674
a(I127
I146
I176
tp2675
a(I127
I147
I171
tp2676
a(I127
I147
I172
tp2677
a(I127
I147
I174
tp2678
a(I127
I148
I169
tp2679
a(I127
I148
I175
tp2680
a(I127
I149
I172
tp2681
a(I127
I149
I173
tp2682
a(I127
I153
I180
tp2683
a(I127
I154
I181
tp2684
a(I127
I155
I176
tp2685
a(I127
I155
I177
tp2686
a(I127
I155
I179
tp2687
a(I127
I156
I188
tp2688
a(I127
I157
I181
tp2689
a(I127
I158
I178
tp2690
a(I127
I171
I196
tp2691
a(I127
I172
I193
tp2692
a(I127
I179
I226
tp2693
a(I127
I180
I224
tp2694
a(I127
I180
I230
tp2695
a(I128
I122
I124
tp2696
a(I128
I123
I127
tp2697
a(I128
I124
I125
tp2698
a(I128
I132
I133
tp2699
a(I128
I133
I129
tp2700
a(I128
I148
I175
tp2701
a(I128
I154
I177
tp2702
a(I128
I154
I179
tp2703
a(I128
I155
I182
tp2704
a(I128
I155
I184
tp2705
a(I128
I156
I178
tp2706
a(I128
I156
I180
tp2707
a(I128
I163
I191
tp2708
a(I128
I164
I186
tp2709
a(I128
I164
I188
tp2710
a(I128
I164
I190
tp2711
a(I128
I171
I205
tp2712
a(I128
I173
I192
tp2713
a(I128
I173
I194
tp2714
a(I128
I173
I212
tp2715
a(I128
I178
I227
tp2716
a(I128
I178
I231
tp2717
a(I128
I179
I224
tp2718
a(I128
I179
I226
tp2719
a(I128
I180
I220
tp2720
a(I128
I180
I227
tp2721
a(I128
I180
I228
tp2722
a(I128
I180
I230
tp2723
a(I128
I181
I223
tp2724
a(I128
I181
I225
tp2725
a(I128
I182
I226
tp2726
a(I128
I182
I228
tp2727
a(I128
I182
I229
tp2728
a(I129
I133
I132
tp2729
a(I129
I133
I134
tp2730
a(I129
I155
I180
tp2731
a(I129
I155
I182
tp2732
a(I129
I156
I173
tp2733
a(I129
I162
I193
tp2734
a(I129
I163
I188
tp2735
a(I129
I163
I190
tp2736
a(I129
I163
I191
tp2737
a(I129
I164
I183
tp2738
a(I129
I164
I184
tp2739
a(I129
I164
I186
tp2740
a(I129
I164
I192
tp2741
a(I129
I165
I187
tp2742
a(I129
I165
I189
tp2743
a(I129
I165
I191
tp2744
a(I129
I166
I185
tp2745
a(I129
I166
I192
tp2746
a(I129
I172
I204
tp2747
a(I129
I172
I206
tp2748
a(I129
I172
I207
tp2749
a(I129
I173
I198
tp2750
a(I129
I173
I202
tp2751
a(I129
I174
I195
tp2752
a(I129
I174
I205
tp2753
a(I129
I174
I207
tp2754
a(I129
I175
I198
tp2755
a(I129
I179
I228
tp2756
a(I129
I179
I230
tp2757
a(I129
I179
I232
tp2758
a(I129
I180
I223
tp2759
a(I129
I180
I225
tp2760
a(I129
I180
I227
tp2761
a(I129
I180
I233
tp2762
a(I129
I181
I218
tp2763
a(I129
I181
I220
tp2764
a(I129
I181
I221
tp2765
a(I129
I181
I228
tp2766
a(I129
I181
I229
tp2767
a(I129
I181
I231
tp2768
a(I129
I182
I224
tp2769
a(I129
I182
I226
tp2770
a(I129
I183
I229
tp2771
a(I130
I130
I130
tp2772
a(I130
I130
I132
tp2773
a(I130
I131
I133
tp2774
a(I130
I131
I135
tp2775
a(I130
I132
I129
tp2776
a(I130
I132
I131
tp2777
a(I130
I154
I188
tp2778
a(I130
I164
I189
tp2779
a(I130
I164
I191
tp2780
a(I130
I164
I192
tp2781
a(I130
I165
I184
tp2782
a(I130
I165
I185
tp2783
a(I130
I165
I187
tp2784
a(I130
I165
I193
tp2785
a(I130
I165
I195
tp2786
a(I130
I166
I188
tp2787
a(I130
I166
I190
tp2788
a(I130
I166
I192
tp2789
a(I130
I170
I196
tp2790
a(I130
I171
I201
tp2791
a(I130
I172
I194
tp2792
a(I130
I172
I196
tp2793
a(I130
I172
I197
tp2794
a(I130
I173
I192
tp2795
a(I130
I173
I205
tp2796
a(I130
I173
I207
tp2797
a(I130
I174
I201
tp2798
a(I130
I174
I203
tp2799
a(I130
I175
I196
tp2800
a(I130
I175
I208
tp2801
a(I130
I178
I224
tp2802
a(I130
I178
I226
tp2803
a(I130
I178
I227
tp2804
a(I130
I179
I219
tp2805
a(I130
I179
I220
tp2806
a(I130
I180
I229
tp2807
a(I130
I180
I231
tp2808
a(I130
I180
I233
tp2809
a(I130
I181
I224
tp2810
a(I130
I181
I226
tp2811
a(I130
I181
I228
tp2812
a(I130
I181
I234
tp2813
a(I130
I182
I221
tp2814
a(I130
I182
I222
tp2815
a(I130
I182
I229
tp2816
a(I130
I182
I230
tp2817
a(I130
I182
I232
tp2818
a(I130
I183
I225
tp2819
a(I130
I183
I227
tp2820
a(I131
I131
I129
tp2821
a(I131
I131
I131
tp2822
a(I131
I131
I133
tp2823
a(I131
I132
I134
tp2824
a(I131
I132
I136
tp2825
a(I131
I133
I128
tp2826
a(I131
I133
I130
tp2827
a(I131
I133
I132
tp2828
a(I131
I154
I186
tp2829
a(I131
I155
I189
tp2830
a(I131
I156
I186
tp2831
a(I131
I156
I187
tp2832
a(I131
I157
I190
tp2833
a(I131
I157
I192
tp2834
a(I131
I161
I189
tp2835
a(I131
I162
I190
tp2836
a(I131
I162
I191
tp2837
a(I131
I163
I184
tp2838
a(I131
I163
I186
tp2839
a(I131
I163
I188
tp2840
a(I131
I164
I183
tp2841
a(I131
I165
I190
tp2842
a(I131
I165
I192
tp2843
a(I131
I165
I193
tp2844
a(I131
I166
I186
tp2845
a(I131
I166
I188
tp2846
a(I131
I170
I199
tp2847
a(I131
I170
I201
tp2848
a(I131
I170
I203
tp2849
a(I131
I171
I196
tp2850
a(I131
I171
I197
tp2851
a(I131
I171
I206
tp2852
a(I131
I171
I207
tp2853
a(I131
I172
I192
tp2854
a(I131
I172
I194
tp2855
a(I131
I172
I200
tp2856
a(I131
I172
I202
tp2857
a(I131
I172
I204
tp2858
a(I131
I173
I195
tp2859
a(I131
I173
I197
tp2860
a(I131
I173
I198
tp2861
a(I131
I174
I191
tp2862
a(I131
I174
I193
tp2863
a(I131
I174
I206
tp2864
a(I131
I174
I208
tp2865
a(I131
I175
I204
tp2866
a(I131
I177
I226
tp2867
a(I131
I177
I227
tp2868
a(I131
I178
I220
tp2869
a(I131
I178
I222
tp2870
a(I131
I178
I224
tp2871
a(I131
I178
I230
tp2872
a(I131
I178
I232
tp2873
a(I131
I179
I217
tp2874
a(I131
I179
I219
tp2875
a(I131
I179
I225
tp2876
a(I131
I179
I227
tp2877
a(I131
I179
I228
tp2878
a(I131
I180
I220
tp2879
a(I131
I180
I221
tp2880
a(I131
I180
I223
tp2881
a(I131
I181
I218
tp2882
a(I131
I181
I230
tp2883
a(I131
I181
I232
tp2884
a(I131
I181
I234
tp2885
a(I131
I182
I225
tp2886
a(I131
I182
I227
tp2887
a(I131
I182
I229
tp2888
a(I131
I183
I223
tp2889
a(I131
I183
I230
tp2890
a(I131
I183
I231
tp2891
a(I131
I183
I233
tp2892
a(I132
I130
I131
tp2893
a(I132
I130
I133
tp2894
a(I132
I131
I129
tp2895
a(I132
I131
I136
tp2896
a(I132
I132
I130
tp2897
a(I132
I132
I132
tp2898
a(I132
I132
I134
tp2899
a(I132
I133
I128
tp2900
a(I132
I133
I135
tp2901
a(I132
I134
I131
tp2902
a(I132
I134
I133
tp2903
a(I132
I155
I186
tp2904
a(I132
I155
I187
tp2905
a(I132
I155
I189
tp2906
a(I132
I156
I190
tp2907
a(I132
I157
I188
tp2908
a(I132
I162
I186
tp2909
a(I132
I162
I188
tp2910
a(I132
I162
I190
tp2911
a(I132
I163
I184
tp2912
a(I132
I163
I191
tp2913
a(I132
I163
I192
tp2914
a(I132
I164
I185
tp2915
a(I132
I164
I187
tp2916
a(I132
I164
I189
tp2917
a(I132
I165
I184
tp2918
a(I132
I167
I189
tp2919
a(I132
I169
I195
tp2920
a(I132
I170
I206
tp2921
a(I132
I170
I207
tp2922
a(I132
I171
I200
tp2923
a(I132
I171
I202
tp2924
a(I132
I171
I204
tp2925
a(I132
I172
I197
tp2926
a(I132
I172
I198
tp2927
a(I132
I172
I207
tp2928
a(I132
I173
I191
tp2929
a(I132
I173
I193
tp2930
a(I132
I173
I195
tp2931
a(I132
I173
I201
tp2932
a(I132
I173
I203
tp2933
a(I132
I173
I205
tp2934
a(I132
I174
I196
tp2935
a(I132
I174
I198
tp2936
a(I132
I175
I194
tp2937
a(I132
I177
I232
tp2938
a(I132
I178
I227
tp2939
a(I132
I178
I228
tp2940
a(I132
I178
I230
tp2941
a(I132
I179
I221
tp2942
a(I132
I179
I223
tp2943
a(I132
I179
I225
tp2944
a(I132
I179
I231
tp2945
a(I132
I179
I233
tp2946
a(I132
I180
I216
tp2947
a(I132
I180
I218
tp2948
a(I132
I180
I220
tp2949
a(I132
I180
I226
tp2950
a(I132
I180
I228
tp2951
a(I132
I180
I229
tp2952
a(I132
I181
I221
tp2953
a(I132
I181
I222
tp2954
a(I132
I181
I224
tp2955
a(I132
I182
I217
tp2956
a(I132
I182
I219
tp2957
a(I132
I182
I231
tp2958
a(I132
I182
I233
tp2959
a(I132
I182
I235
tp2960
a(I132
I183
I228
tp2961
a(I132
I183
I230
tp2962
a(I133
I131
I132
tp2963
a(I133
I131
I134
tp2964
a(I133
I131
I136
tp2965
a(I133
I132
I128
tp2966
a(I133
I132
I130
tp2967
a(I133
I133
I131
tp2968
a(I133
I133
I133
tp2969
a(I133
I133
I135
tp2970
a(I133
I134
I129
tp2971
a(I133
I156
I187
tp2972
a(I133
I156
I190
tp2973
a(I133
I163
I187
tp2974
a(I133
I163
I189
tp2975
a(I133
I163
I191
tp2976
a(I133
I164
I185
tp2977
a(I133
I164
I192
tp2978
a(I133
I164
I193
tp2979
a(I133
I165
I186
tp2980
a(I133
I165
I188
tp2981
a(I133
I165
I190
tp2982
a(I133
I166
I185
tp2983
a(I133
I169
I193
tp2984
a(I133
I170
I196
tp2985
a(I133
I170
I197
tp2986
a(I133
I171
I194
tp2987
a(I133
I171
I207
tp2988
a(I133
I171
I208
tp2989
a(I133
I172
I201
tp2990
a(I133
I172
I203
tp2991
a(I133
I172
I205
tp2992
a(I133
I173
I198
tp2993
a(I133
I173
I199
tp2994
a(I133
I173
I208
tp2995
a(I133
I173
I209
tp2996
a(I133
I174
I194
tp2997
a(I133
I174
I196
tp2998
a(I133
I174
I204
tp2999
a(I133
I177
I226
tp3000
a(I133
I178
I217
tp3001
a(I133
I178
I219
tp3002
a(I133
I178
I233
tp3003
a(I133
I179
I228
tp3004
a(I133
I179
I229
tp3005
a(I133
I179
I231
tp3006
a(I133
I180
I222
tp3007
a(I133
I180
I224
tp3008
a(I133
I180
I226
tp3009
a(I133
I180
I232
tp3010
a(I133
I180
I234
tp3011
a(I133
I181
I217
tp3012
a(I133
I181
I219
tp3013
a(I133
I181
I221
tp3014
a(I133
I181
I227
tp3015
a(I133
I181
I229
tp3016
a(I133
I181
I230
tp3017
a(I133
I182
I225
tp3018
a(I133
I183
I220
tp3019
a(I134
I130
I127
tp3020
a(I134
I130
I129
tp3021
a(I134
I132
I133
tp3022
a(I134
I132
I135
tp3023
a(I134
I132
I137
tp3024
a(I134
I133
I131
tp3025
a(I134
I134
I134
tp3026
a(I134
I157
I189
tp3027
a(I134
I161
I188
tp3028
a(I134
I162
I186
tp3029
a(I134
I163
I193
tp3030
a(I134
I164
I188
tp3031
a(I134
I164
I190
tp3032
a(I134
I164
I192
tp3033
a(I134
I165
I185
tp3034
a(I134
I165
I186
tp3035
a(I134
I165
I193
tp3036
a(I134
I166
I187
tp3037
a(I134
I166
I191
tp3038
a(I134
I169
I197
tp3039
a(I134
I170
I194
tp3040
a(I134
I170
I196
tp3041
a(I134
I170
I202
tp3042
a(I134
I170
I204
tp3043
a(I134
I170
I206
tp3044
a(I134
I171
I197
tp3045
a(I134
I171
I198
tp3046
a(I134
I171
I200
tp3047
a(I134
I172
I193
tp3048
a(I134
I172
I195
tp3049
a(I134
I172
I208
tp3050
a(I134
I172
I209
tp3051
a(I134
I173
I202
tp3052
a(I134
I173
I204
tp3053
a(I134
I173
I206
tp3054
a(I134
I174
I200
tp3055
a(I134
I177
I219
tp3056
a(I134
I177
I228
tp3057
a(I134
I177
I230
tp3058
a(I134
I178
I217
tp3059
a(I134
I178
I223
tp3060
a(I134
I178
I225
tp3061
a(I134
I178
I227
tp3062
a(I134
I179
I218
tp3063
a(I134
I179
I220
tp3064
a(I134
I179
I221
tp3065
a(I134
I180
I216
tp3066
a(I134
I180
I229
tp3067
a(I134
I180
I230
tp3068
a(I134
I180
I232
tp3069
a(I134
I181
I223
tp3070
a(I134
I181
I225
tp3071
a(I134
I181
I227
tp3072
a(I134
I181
I233
tp3073
a(I134
I182
I228
tp3074
a(I134
I182
I230
tp3075
a(I134
I182
I231
tp3076
a(I135
I131
I128
tp3077
a(I135
I131
I130
tp3078
a(I135
I131
I132
tp3079
a(I135
I134
I132
tp3080
a(I135
I155
I188
tp3081
a(I135
I156
I187
tp3082
a(I135
I162
I179
tp3083
a(I135
I162
I189
tp3084
a(I135
I162
I191
tp3085
a(I135
I163
I185
tp3086
a(I135
I163
I187
tp3087
a(I135
I165
I189
tp3088
a(I135
I165
I191
tp3089
a(I135
I166
I186
tp3090
a(I135
I166
I187
tp3091
a(I135
I169
I194
tp3092
a(I135
I169
I204
tp3093
a(I135
I170
I198
tp3094
a(I135
I170
I200
tp3095
a(I135
I170
I202
tp3096
a(I135
I171
I193
tp3097
a(I135
I171
I195
tp3098
a(I135
I171
I197
tp3099
a(I135
I171
I203
tp3100
a(I135
I171
I205
tp3101
a(I135
I171
I207
tp3102
a(I135
I172
I198
tp3103
a(I135
I172
I201
tp3104
a(I135
I173
I196
tp3105
a(I135
I173
I209
tp3106
a(I135
I174
I205
tp3107
a(I135
I177
I225
tp3108
a(I135
I177
I227
tp3109
a(I135
I178
I220
tp3110
a(I135
I178
I221
tp3111
a(I135
I178
I223
tp3112
a(I135
I178
I229
tp3113
a(I135
I178
I231
tp3114
a(I135
I179
I218
tp3115
a(I135
I179
I224
tp3116
a(I135
I179
I226
tp3117
a(I135
I179
I228
tp3118
a(I135
I180
I219
tp3119
a(I135
I180
I221
tp3120
a(I135
I180
I222
tp3121
a(I135
I181
I217
tp3122
a(I135
I181
I230
tp3123
a(I135
I181
I231
tp3124
a(I135
I181
I233
tp3125
a(I135
I182
I228
tp3126
a(I135
I183
I223
tp3127
a(I136
I132
I129
tp3128
a(I136
I162
I185
tp3129
a(I136
I162
I187
tp3130
a(I136
I163
I180
tp3131
a(I136
I163
I182
tp3132
a(I136
I163
I184
tp3133
a(I136
I163
I190
tp3134
a(I136
I163
I192
tp3135
a(I136
I164
I185
tp3136
a(I136
I164
I186
tp3137
a(I136
I164
I188
tp3138
a(I136
I170
I198
tp3139
a(I136
I171
I193
tp3140
a(I136
I171
I201
tp3141
a(I136
I172
I198
tp3142
a(I136
I172
I204
tp3143
a(I136
I172
I206
tp3144
a(I136
I172
I208
tp3145
a(I136
I173
I199
tp3146
a(I136
I173
I202
tp3147
a(I136
I177
I229
tp3148
a(I136
I178
I226
tp3149
a(I136
I178
I228
tp3150
a(I136
I179
I214
tp3151
a(I136
I179
I221
tp3152
a(I136
I179
I222
tp3153
a(I136
I179
I224
tp3154
a(I136
I179
I230
tp3155
a(I136
I179
I232
tp3156
a(I136
I180
I207
tp3157
a(I136
I180
I217
tp3158
a(I136
I180
I219
tp3159
a(I136
I180
I225
tp3160
a(I136
I180
I227
tp3161
a(I136
I180
I229
tp3162
a(I136
I181
I214
tp3163
a(I136
I181
I220
tp3164
a(I136
I181
I222
tp3165
a(I136
I181
I223
tp3166
a(I137
I141
I140
tp3167
a(I137
I141
I142
tp3168
a(I137
I141
I144
tp3169
a(I137
I142
I138
tp3170
a(I137
I163
I186
tp3171
a(I137
I170
I203
tp3172
a(I137
I171
I206
tp3173
a(I137
I172
I200
tp3174
a(I137
I172
I202
tp3175
a(I137
I172
I204
tp3176
a(I137
I172
I210
tp3177
a(I137
I173
I205
tp3178
a(I137
I173
I207
tp3179
a(I137
I173
I209
tp3180
a(I137
I174
I203
tp3181
a(I137
I177
I226
tp3182
a(I137
I177
I228
tp3183
a(I137
I178
I230
tp3184
a(I137
I179
I217
tp3185
a(I137
I179
I219
tp3186
a(I137
I179
I221
tp3187
a(I137
I179
I227
tp3188
a(I137
I179
I229
tp3189
a(I137
I180
I212
tp3190
a(I137
I180
I214
tp3191
a(I137
I180
I215
tp3192
a(I137
I180
I222
tp3193
a(I137
I180
I225
tp3194
a(I137
I180
I231
tp3195
a(I137
I181
I208
tp3196
a(I137
I181
I210
tp3197
a(I137
I181
I216
tp3198
a(I137
I181
I218
tp3199
a(I137
I181
I220
tp3200
a(I137
I181
I226
tp3201
a(I137
I182
I211
tp3202
a(I137
I182
I213
tp3203
a(I137
I182
I223
tp3204
a(I137
I182
I224
tp3205
a(I138
I138
I138
tp3206
a(I138
I139
I141
tp3207
a(I138
I139
I143
tp3208
a(I138
I140
I137
tp3209
a(I138
I140
I139
tp3210
a(I138
I142
I141
tp3211
a(I138
I142
I143
tp3212
a(I138
I143
I139
tp3213
a(I138
I171
I202
tp3214
a(I138
I171
I204
tp3215
a(I138
I171
I206
tp3216
a(I138
I172
I207
tp3217
a(I138
I173
I201
tp3218
a(I138
I173
I203
tp3219
a(I138
I173
I205
tp3220
a(I138
I174
I200
tp3221
a(I138
I174
I208
tp3222
a(I138
I175
I204
tp3223
a(I138
I178
I213
tp3224
a(I138
I179
I209
tp3225
a(I138
I179
I223
tp3226
a(I138
I180
I218
tp3227
a(I138
I180
I220
tp3228
a(I138
I180
I222
tp3229
a(I138
I181
I213
tp3230
a(I138
I181
I215
tp3231
a(I138
I181
I216
tp3232
a(I138
I181
I223
tp3233
a(I138
I181
I224
tp3234
a(I138
I182
I211
tp3235
a(I138
I182
I219
tp3236
a(I138
I182
I221
tp3237
a(I138
I184
I210
tp3238
a(I139
I138
I143
tp3239
a(I139
I139
I137
tp3240
a(I139
I139
I139
tp3241
a(I139
I139
I141
tp3242
a(I139
I140
I135
tp3243
a(I139
I140
I142
tp3244
a(I139
I140
I144
tp3245
a(I139
I141
I136
tp3246
a(I139
I141
I138
tp3247
a(I139
I141
I140
tp3248
a(I139
I171
I209
tp3249
a(I139
I172
I203
tp3250
a(I139
I172
I205
tp3251
a(I139
I172
I207
tp3252
a(I139
I173
I201
tp3253
a(I139
I173
I208
tp3254
a(I139
I174
I202
tp3255
a(I139
I174
I204
tp3256
a(I139
I174
I206
tp3257
a(I139
I177
I213
tp3258
a(I139
I178
I211
tp3259
a(I139
I178
I217
tp3260
a(I139
I178
I219
tp3261
a(I139
I178
I221
tp3262
a(I139
I179
I214
tp3263
a(I139
I179
I215
tp3264
a(I139
I180
I208
tp3265
a(I139
I180
I210
tp3266
a(I139
I180
I212
tp3267
a(I139
I180
I224
tp3268
a(I139
I181
I219
tp3269
a(I139
I181
I221
tp3270
a(I139
I181
I223
tp3271
a(I139
I182
I214
tp3272
a(I139
I182
I216
tp3273
a(I139
I182
I217
tp3274
a(I139
I182
I225
tp3275
a(I139
I183
I212
tp3276
a(I139
I183
I220
tp3277
a(I139
I183
I222
tp3278
a(I140
I138
I139
tp3279
a(I140
I138
I141
tp3280
a(I140
I139
I135
tp3281
a(I140
I139
I137
tp3282
a(I140
I139
I144
tp3283
a(I140
I140
I138
tp3284
a(I140
I140
I140
tp3285
a(I140
I140
I142
tp3286
a(I140
I141
I136
tp3287
a(I140
I141
I143
tp3288
a(I140
I141
I145
tp3289
a(I140
I142
I139
tp3290
a(I140
I142
I141
tp3291
a(I140
I170
I204
tp3292
a(I140
I170
I206
tp3293
a(I140
I171
I200
tp3294
a(I140
I171
I202
tp3295
a(I140
I172
I210
tp3296
a(I140
I172
I211
tp3297
a(I140
I173
I204
tp3298
a(I140
I173
I206
tp3299
a(I140
I173
I208
tp3300
a(I140
I174
I202
tp3301
a(I140
I175
I207
tp3302
a(I140
I177
I221
tp3303
a(I140
I178
I214
tp3304
a(I140
I178
I217
tp3305
a(I140
I178
I223
tp3306
a(I140
I179
I208
tp3307
a(I140
I179
I210
tp3308
a(I140
I179
I212
tp3309
a(I140
I179
I218
tp3310
a(I140
I179
I220
tp3311
a(I140
I179
I222
tp3312
a(I140
I180
I215
tp3313
a(I140
I180
I216
tp3314
a(I140
I181
I209
tp3315
a(I140
I181
I211
tp3316
a(I140
I181
I213
tp3317
a(I140
I182
I207
tp3318
a(I140
I182
I220
tp3319
a(I140
I182
I222
tp3320
a(I140
I182
I224
tp3321
a(I140
I183
I218
tp3322
a(I141
I139
I140
tp3323
a(I141
I139
I142
tp3324
a(I141
I139
I144
tp3325
a(I141
I140
I136
tp3326
a(I141
I140
I138
tp3327
a(I141
I141
I139
tp3328
a(I141
I141
I141
tp3329
a(I141
I141
I143
tp3330
a(I141
I142
I137
tp3331
a(I141
I142
I144
tp3332
a(I141
I170
I204
tp3333
a(I141
I171
I205
tp3334
a(I141
I171
I207
tp3335
a(I141
I172
I201
tp3336
a(I141
I172
I203
tp3337
a(I141
I174
I205
tp3338
a(I141
I177
I209
tp3339
a(I141
I178
I220
tp3340
a(I141
I178
I222
tp3341
a(I141
I178
I223
tp3342
a(I141
I179
I215
tp3343
a(I141
I179
I216
tp3344
a(I141
I179
I218
tp3345
a(I141
I179
I224
tp3346
a(I141
I179
I226
tp3347
a(I141
I180
I209
tp3348
a(I141
I180
I211
tp3349
a(I141
I180
I213
tp3350
a(I141
I180
I219
tp3351
a(I141
I180
I221
tp3352
a(I141
I180
I223
tp3353
a(I141
I181
I216
tp3354
a(I141
I181
I217
tp3355
a(I141
I182
I210
tp3356
a(I141
I182
I212
tp3357
a(I141
I182
I214
tp3358
a(I142
I138
I135
tp3359
a(I142
I138
I139
tp3360
a(I142
I140
I141
tp3361
a(I142
I140
I143
tp3362
a(I142
I141
I137
tp3363
a(I142
I141
I139
tp3364
a(I142
I142
I140
tp3365
a(I142
I142
I142
tp3366
a(I142
I170
I207
tp3367
a(I142
I171
I201
tp3368
a(I142
I171
I203
tp3369
a(I142
I171
I205
tp3370
a(I142
I172
I206
tp3371
a(I142
I172
I208
tp3372
a(I142
I173
I202
tp3373
a(I142
I173
I204
tp3374
a(I142
I176
I222
tp3375
a(I142
I178
I210
tp3376
a(I142
I178
I212
tp3377
a(I142
I178
I214
tp3378
a(I142
I179
I206
tp3379
a(I142
I179
I208
tp3380
a(I142
I179
I221
tp3381
a(I142
I179
I223
tp3382
a(I142
I179
I224
tp3383
a(I142
I180
I216
tp3384
a(I142
I180
I217
tp3385
a(I142
I180
I219
tp3386
a(I142
I181
I210
tp3387
a(I142
I181
I212
tp3388
a(I142
I181
I214
tp3389
a(I142
I181
I220
tp3390
a(I142
I181
I222
tp3391
a(I142
I181
I224
tp3392
a(I142
I182
I218
tp3393
a(I142
I183
I215
tp3394
a(I143
I139
I136
tp3395
a(I143
I139
I138
tp3396
a(I143
I139
I140
tp3397
a(I143
I140
I135
tp3398
a(I143
I172
I202
tp3399
a(I143
I172
I204
tp3400
a(I143
I172
I206
tp3401
a(I143
I177
I212
tp3402
a(I143
I177
I222
tp3403
a(I143
I178
I208
tp3404
a(I143
I178
I210
tp3405
a(I143
I178
I218
tp3406
a(I143
I178
I220
tp3407
a(I143
I179
I211
tp3408
a(I143
I179
I213
tp3409
a(I143
I179
I215
tp3410
a(I143
I180
I209
tp3411
a(I143
I180
I222
tp3412
a(I143
I180
I224
tp3413
a(I143
I181
I218
tp3414
a(I143
I181
I220
tp3415
a(I143
I182
I223
tp3416
a(I144
I138
I138
tp3417
a(I144
I140
I137
tp3418
a(I144
I171
I201
tp3419
a(I144
I177
I218
tp3420
a(I144
I177
I220
tp3421
a(I144
I178
I213
tp3422
a(I144
I179
I209
tp3423
a(I144
I179
I211
tp3424
a(I144
I179
I217
tp3425
a(I144
I179
I219
tp3426
a(I144
I179
I221
tp3427
a(I144
I180
I212
tp3428
a(I144
I180
I214
tp3429
a(I144
I180
I216
tp3430
a(I145
I139
I139
tp3431
a(I145
I171
I204
tp3432
a(I145
I178
I209
tp3433
a(I145
I179
I207
tp3434
a(I145
I179
I217
tp3435
a(I145
I180
I210
tp3436
a(I145
I180
I218
tp3437
a(I145
I180
I220
tp3438
a(I152
I156
I157
tp3439
a(I153
I157
I156
tp3440
a(I153
I157
I158
tp3441
a(I153
I158
I154
tp3442
a(I154
I154
I154
tp3443
a(I154
I155
I157
tp3444
a(I154
I155
I159
tp3445
a(I154
I156
I153
tp3446
a(I154
I156
I155
tp3447
a(I155
I154
I152
tp3448
a(I155
I155
I153
tp3449
a(I155
I155
I155
tp3450
a(I155
I155
I157
tp3451
a(I155
I156
I151
tp3452
a(I155
I156
I158
tp3453
a(I155
I156
I160
tp3454
a(I155
I157
I154
tp3455
a(I155
I157
I156
tp3456
a(I156
I154
I155
tp3457
a(I156
I155
I153
tp3458
a(I156
I155
I160
tp3459
a(I156
I156
I154
tp3460
a(I156
I156
I156
tp3461
a(I156
I156
I158
tp3462
a(I156
I157
I152
tp3463
a(I156
I157
I159
tp3464
a(I156
I157
I161
tp3465
a(I156
I158
I155
tp3466
a(I156
I158
I157
tp3467
a(I157
I155
I156
tp3468
a(I157
I155
I158
tp3469
a(I157
I155
I160
tp3470
a(I157
I156
I152
tp3471
a(I157
I156
I154
tp3472
a(I157
I157
I155
tp3473
a(I157
I157
I157
tp3474
a(I157
I157
I159
tp3475
a(I158
I154
I155
tp3476
a(I158
I156
I157
tp3477
a(I158
I156
I159
tp3478
a(I158
I157
I155
tp3479
a(I158
I158
I158
tp3480
a(I159
I155
I152
tp3481
a(I159
I155
I154
tp3482
a(I159
I155
I156
tp3483
a(I159
I157
I158
tp3484
a(I159
I163
I164
tp3485
a(I160
I156
I153
tp3486
a(I160
I165
I161
tp3487
a(I161
I165
I164
tp3488
a(I161
I165
I166
tp3489
a(I162
I162
I162
tp3490
a(I162
I163
I165
tp3491
a(I162
I164
I161
tp3492
a(I162
I164
I163
tp3493
a(I163
I163
I161
tp3494
a(I163
I163
I163
tp3495
a(I163
I163
I165
tp3496
a(I163
I164
I166
tp3497
a(I163
I164
I168
tp3498
a(I163
I165
I162
tp3499
a(I163
I165
I164
tp3500
a(I164
I162
I163
tp3501
a(I164
I162
I165
tp3502
a(I164
I162
I167
tp3503
a(I164
I163
I161
tp3504
a(I164
I163
I168
tp3505
a(I164
I164
I162
tp3506
a(I164
I164
I164
tp3507
a(I164
I164
I166
tp3508
a(I164
I165
I160
tp3509
a(I164
I165
I167
tp3510
a(I164
I166
I161
tp3511
a(I164
I166
I163
tp3512
a(I164
I166
I165
tp3513
a(I165
I163
I164
tp3514
a(I165
I163
I166
tp3515
a(I165
I164
I160
tp3516
a(I165
I164
I162
tp3517
a(I165
I165
I163
tp3518
a(I165
I165
I165
tp3519
a(I165
I165
I167
tp3520
a(I165
I166
I161
tp3521
a(I165
I167
I164
tp3522
a(I166
I161
I165
tp3523
a(I166
I162
I163
tp3524
a(I166
I164
I165
tp3525
a(I166
I164
I167
tp3526
a(I166
I165
I163
tp3527
a(I166
I166
I164
tp3528
a(I166
I166
I166
tp3529
a(I167
I163
I162
tp3530
a(I169
I173
I176
tp3531
a(I169
I174
I170
tp3532
a(I170
I170
I170
tp3533
a(I170
I171
I173
tp3534
a(I170
I172
I169
tp3535
a(I170
I172
I171
tp3536
a(I171
I171
I169
tp3537
a(I171
I171
I171
tp3538
a(I171
I171
I173
tp3539
a(I171
I172
I167
tp3540
a(I171
I172
I174
tp3541
a(I171
I173
I170
tp3542
a(I171
I173
I172
tp3543
a(I172
I170
I171
tp3544
a(I172
I170
I173
tp3545
a(I172
I171
I169
tp3546
a(I172
I171
I176
tp3547
a(I172
I172
I170
tp3548
a(I172
I172
I172
tp3549
a(I172
I172
I174
tp3550
a(I172
I173
I168
tp3551
a(I172
I173
I175
tp3552
a(I172
I174
I171
tp3553
a(I172
I174
I173
tp3554
a(I173
I171
I172
tp3555
a(I173
I171
I174
tp3556
a(I173
I172
I168
tp3557
a(I173
I172
I170
tp3558
a(I173
I173
I171
tp3559
a(I173
I173
I173
tp3560
a(I173
I173
I175
tp3561
a(I173
I174
I169
tp3562
a(I174
I170
I169
tp3563
a(I174
I172
I173
tp3564
a(I174
I172
I175
tp3565
a(I174
I173
I171
tp3566
a(I174
I174
I174
tp3567
a(I175
I170
I174
tp3568
a(I175
I171
I168
tp3569
a(I175
I171
I170
tp3570
a(I175
I171
I172
tp3571
a(I176
I172
I171
tp3572
a(I176
I172
I173
tp3573
a(I176
I180
I179
tp3574
a(I177
I181
I180
tp3575
a(I177
I181
I182
tp3576
a(I178
I178
I178
tp3577
a(I178
I178
I180
tp3578
a(I178
I179
I181
tp3579
a(I178
I179
I183
tp3580
a(I178
I180
I177
tp3581
a(I178
I180
I179
tp3582
a(I178
I182
I181
tp3583
a(I178
I182
I183
tp3584
a(I179
I179
I177
tp3585
a(I179
I179
I179
tp3586
a(I179
I179
I181
tp3587
a(I179
I180
I175
tp3588
a(I179
I180
I182
tp3589
a(I179
I180
I184
tp3590
a(I179
I181
I176
tp3591
a(I179
I181
I178
tp3592
a(I179
I181
I180
tp3593
a(I180
I178
I179
tp3594
a(I180
I178
I181
tp3595
a(I180
I179
I175
tp3596
a(I180
I179
I177
tp3597
a(I180
I179
I184
tp3598
a(I180
I180
I178
tp3599
a(I180
I180
I180
tp3600
a(I180
I180
I182
tp3601
a(I180
I181
I176
tp3602
a(I180
I181
I183
tp3603
a(I180
I182
I179
tp3604
a(I180
I182
I181
tp3605
a(I181
I179
I180
tp3606
a(I181
I179
I182
tp3607
a(I181
I179
I184
tp3608
a(I181
I180
I178
tp3609
a(I181
I180
I186
tp3610
a(I181
I181
I179
tp3611
a(I181
I181
I181
tp3612
a(I181
I181
I183
tp3613
a(I181
I182
I184
tp3614
a(I182
I178
I177
tp3615
a(I182
I180
I181
tp3616
a(I182
I180
I183
tp3617
a(I182
I181
I177
tp3618
a(I182
I181
I179
tp3619
a(I182
I182
I182
tp3620
a(I183
I179
I176
tp3621
a(I183
I179
I178
tp3622
a(I183
I179
I180
tp3623
a(I184
I178
I178
tp3624
a(I184
I180
I179
tp3625
a(I184
I188
I187
tp3626
a(I185
I187
I186
tp3627
a(I185
I189
I188
tp3628
a(I185
I189
I190
tp3629
a(I185
I189
I192
tp3630
a(I185
I190
I186
tp3631
a(I186
I186
I186
tp3632
a(I186
I187
I189
tp3633
a(I186
I187
I191
tp3634
a(I186
I188
I185
tp3635
a(I186
I188
I187
tp3636
a(I186
I190
I189
tp3637
a(I186
I190
I191
tp3638
a(I187
I186
I191
tp3639
a(I187
I187
I185
tp3640
a(I187
I187
I187
tp3641
a(I187
I187
I189
tp3642
a(I187
I188
I190
tp3643
a(I187
I188
I192
tp3644
a(I187
I189
I186
tp3645
a(I187
I189
I188
tp3646
a(I188
I186
I187
tp3647
a(I188
I186
I189
tp3648
a(I188
I187
I185
tp3649
a(I188
I187
I192
tp3650
a(I188
I188
I186
tp3651
a(I188
I188
I188
tp3652
a(I188
I188
I190
tp3653
a(I188
I189
I184
tp3654
a(I188
I189
I191
tp3655
a(I188
I190
I187
tp3656
a(I188
I190
I189
tp3657
a(I189
I187
I188
tp3658
a(I189
I187
I190
tp3659
a(I189
I187
I192
tp3660
a(I189
I188
I184
tp3661
a(I189
I188
I186
tp3662
a(I189
I189
I187
tp3663
a(I189
I189
I189
tp3664
a(I189
I189
I191
tp3665
a(I189
I190
I185
tp3666
a(I189
I190
I192
tp3667
a(I189
I191
I190
tp3668
a(I190
I185
I189
tp3669
a(I190
I188
I189
tp3670
a(I190
I188
I191
tp3671
a(I190
I189
I187
tp3672
a(I190
I189
I194
tp3673
a(I190
I190
I190
tp3674
a(I191
I187
I184
tp3675
a(I191
I187
I186
tp3676
a(I191
I187
I188
tp3677
a(I192
I188
I185
tp3678
a(I192
I188
I189
tp3679
a(I193
I195
I194
tp3680
a(I193
I197
I198
tp3681
a(I193
I198
I194
tp3682
a(I194
I194
I194
tp3683
a(I194
I195
I197
tp3684
a(I194
I195
I199
tp3685
a(I194
I196
I191
tp3686
a(I194
I196
I193
tp3687
a(I194
I196
I195
tp3688
a(I194
I198
I197
tp3689
a(I195
I193
I194
tp3690
a(I195
I195
I193
tp3691
a(I195
I195
I195
tp3692
a(I195
I195
I197
tp3693
a(I195
I196
I198
tp3694
a(I195
I196
I200
tp3695
a(I195
I197
I192
tp3696
a(I195
I197
I194
tp3697
a(I195
I197
I196
tp3698
a(I196
I194
I195
tp3699
a(I196
I194
I197
tp3700
a(I196
I195
I193
tp3701
a(I196
I195
I200
tp3702
a(I196
I196
I194
tp3703
a(I196
I196
I196
tp3704
a(I196
I196
I198
tp3705
a(I196
I197
I192
tp3706
a(I196
I197
I199
tp3707
a(I196
I198
I195
tp3708
a(I196
I198
I197
tp3709
a(I197
I195
I196
tp3710
a(I197
I195
I198
tp3711
a(I197
I196
I194
tp3712
a(I197
I197
I195
tp3713
a(I197
I197
I197
tp3714
a(I197
I197
I199
tp3715
a(I198
I193
I197
tp3716
a(I198
I194
I193
tp3717
a(I198
I196
I197
tp3718
a(I198
I196
I199
tp3719
a(I198
I196
I201
tp3720
a(I198
I197
I195
tp3721
a(I198
I198
I198
tp3722
a(I198
I198
I200
tp3723
a(I199
I195
I196
tp3724
a(I200
I196
I195
tp3725
a(I200
I204
I203
tp3726
a(I200
I204
I205
tp3727
a(I200
I206
I206
tp3728
a(I201
I203
I202
tp3729
a(I201
I205
I204
tp3730
a(I201
I205
I206
tp3731
a(I202
I202
I202
tp3732
a(I202
I203
I205
tp3733
a(I202
I204
I201
tp3734
a(I202
I204
I203
tp3735
a(I203
I203
I201
tp3736
a(I203
I203
I203
tp3737
a(I203
I203
I205
tp3738
a(I203
I204
I206
tp3739
a(I203
I204
I208
tp3740
a(I203
I205
I200
tp3741
a(I203
I205
I202
tp3742
a(I203
I205
I204
tp3743
a(I204
I202
I203
tp3744
a(I204
I203
I201
tp3745
a(I204
I203
I208
tp3746
a(I204
I204
I202
tp3747
a(I204
I204
I204
tp3748
a(I204
I204
I206
tp3749
a(I204
I205
I200
tp3750
a(I204
I205
I207
tp3751
a(I204
I205
I209
tp3752
a(I204
I206
I203
tp3753
a(I204
I206
I205
tp3754
a(I205
I203
I204
tp3755
a(I205
I203
I206
tp3756
a(I205
I203
I208
tp3757
a(I205
I204
I200
tp3758
a(I205
I204
I202
tp3759
a(I205
I205
I203
tp3760
a(I205
I205
I205
tp3761
a(I205
I205
I207
tp3762
a(I205
I206
I201
tp3763
a(I206
I202
I201
tp3764
a(I206
I202
I203
tp3765
a(I206
I204
I205
tp3766
a(I206
I204
I207
tp3767
a(I206
I205
I203
tp3768
a(I206
I206
I206
tp3769
a(I206
I206
I208
tp3770
a(I207
I203
I202
tp3771
a(I207
I203
I204
tp3772
a(I207
I204
I199
tp3773
a(I208
I204
I205
tp3774
a(I209
I213
I212
tp3775
a(I209
I213
I214
tp3776
a(I210
I210
I210
tp3777
a(I210
I211
I213
tp3778
a(I210
I212
I207
tp3779
a(I210
I212
I211
tp3780
a(I211
I211
I209
tp3781
a(I211
I211
I211
tp3782
a(I211
I211
I213
tp3783
a(I211
I212
I214
tp3784
a(I211
I212
I216
tp3785
a(I211
I212
I217
tp3786
a(I211
I213
I208
tp3787
a(I211
I213
I210
tp3788
a(I211
I213
I212
tp3789
a(I212
I210
I211
tp3790
a(I212
I210
I213
tp3791
a(I212
I211
I209
tp3792
a(I212
I211
I216
tp3793
a(I212
I212
I210
tp3794
a(I212
I212
I212
tp3795
a(I212
I212
I214
tp3796
a(I212
I213
I208
tp3797
a(I212
I213
I215
tp3798
a(I212
I214
I211
tp3799
a(I212
I214
I213
tp3800
a(I213
I211
I212
tp3801
a(I213
I211
I214
tp3802
a(I213
I211
I216
tp3803
a(I213
I212
I208
tp3804
a(I213
I212
I210
tp3805
a(I213
I213
I211
tp3806
a(I213
I213
I213
tp3807
a(I213
I213
I215
tp3808
a(I214
I210
I211
tp3809
a(I214
I212
I213
tp3810
a(I214
I212
I215
tp3811
a(I214
I213
I211
tp3812
a(I214
I214
I214
tp3813
a(I215
I211
I210
tp3814
a(I215
I211
I212
tp3815
a(I216
I212
I213
tp3816
a(I216
I220
I219
tp3817
a(I217
I221
I220
tp3818
a(I217
I221
I222
tp3819
a(I217
I222
I218
tp3820
a(I218
I218
I216
tp3821
a(I218
I218
I218
tp3822
a(I218
I219
I221
tp3823
a(I218
I219
I223
tp3824
a(I218
I220
I217
tp3825
a(I218
I220
I219
tp3826
a(I218
I222
I221
tp3827
a(I218
I222
I223
tp3828
a(I219
I218
I223
tp3829
a(I219
I219
I217
tp3830
a(I219
I219
I219
tp3831
a(I219
I219
I221
tp3832
a(I219
I220
I222
tp3833
a(I219
I220
I224
tp3834
a(I219
I221
I216
tp3835
a(I219
I221
I218
tp3836
a(I219
I221
I220
tp3837
a(I220
I218
I219
tp3838
a(I220
I218
I221
tp3839
a(I220
I219
I215
tp3840
a(I220
I219
I217
tp3841
a(I220
I219
I224
tp3842
a(I220
I220
I218
tp3843
a(I220
I220
I220
tp3844
a(I220
I220
I222
tp3845
a(I220
I221
I216
tp3846
a(I220
I221
I223
tp3847
a(I220
I222
I219
tp3848
a(I220
I222
I221
tp3849
a(I221
I219
I220
tp3850
a(I221
I219
I222
tp3851
a(I221
I219
I224
tp3852
a(I221
I220
I216
tp3853
a(I221
I220
I218
tp3854
a(I221
I220
I225
tp3855
a(I221
I221
I219
tp3856
a(I221
I221
I221
tp3857
a(I221
I221
I223
tp3858
a(I221
I222
I217
tp3859
a(I222
I218
I215
tp3860
a(I222
I218
I217
tp3861
a(I222
I220
I221
tp3862
a(I222
I220
I223
tp3863
a(I222
I221
I217
tp3864
a(I222
I221
I219
tp3865
a(I222
I222
I222
tp3866
a(I223
I218
I222
tp3867
a(I223
I219
I216
tp3868
a(I223
I219
I218
tp3869
a(I223
I219
I220
tp3870
a(I223
I221
I222
tp3871
a(I224
I219
I223
tp3872
a(I224
I220
I219
tp3873
a(I224
I220
I221
tp3874
a(I225
I229
I228
tp3875
a(I225
I229
I230
tp3876
a(I226
I228
I227
tp3877
a(I227
I227
I227
tp3878
a(I227
I228
I230
tp3879
a(I227
I229
I228
tp3880
a(I228
I227
I225
tp3881
a(I228
I228
I226
tp3882
a(I228
I228
I228
tp3883
a(I228
I228
I230
tp3884
a(I228
I230
I229
tp3885
a(I229
I227
I230
tp3886
a(I229
I228
I226
tp3887
a(I229
I229
I227
tp3888
a(I229
I229
I229
tp3889
a(I230
I228
I231
tp3890
a(I230
I229
I227
tp3891
a(I230
I230
I230
tp3892
a(I232
I228
I227
tp3893
a(I233
I237
I238
tp3894
a(I234
I234
I234
tp3895
a(I234
I235
I237
tp3896
a(I234
I236
I235
tp3897
a(I235
I235
I233
tp3898
a(I235
I235
I235
tp3899
a(I235
I235
I237
tp3900
a(I235
I236
I238
tp3901
a(I235
I237
I234
tp3902
a(I235
I237
I236
tp3903
a(I236
I234
I235
tp3904
a(I236
I234
I237
tp3905
a(I236
I234
I239
tp3906
a(I236
I235
I233
tp3907
a(I236
I235
I240
tp3908
a(I236
I236
I234
tp3909
a(I236
I236
I236
tp3910
a(I236
I236
I238
tp3911
a(I236
I238
I235
tp3912
a(I236
I238
I237
tp3913
a(I237
I235
I236
tp3914
a(I237
I235
I238
tp3915
a(I237
I235
I240
tp3916
a(I237
I236
I234
tp3917
a(I237
I237
I235
tp3918
a(I237
I237
I237
tp3919
a(I237
I237
I239
tp3920
a(I238
I236
I237
tp3921
a(I238
I237
I235
tp3922
a(I238
I238
I238
tp3923
a(I238
I238
I240
tp3924
a(I239
I234
I238
tp3925
a(I239
I235
I232
tp3926
a(I239
I235
I234
tp3927
a(I239
I235
I236
tp3928
a(I241
I246
I242
tp3929
a(I241
I247
I247
tp3930
a(I242
I242
I242
tp3931
a(I242
I243
I245
tp3932
a(I242
I243
I247
tp3933
a(I242
I244
I239
tp3934
a(I242
I244
I241
tp3935
a(I242
I244
I243
tp3936
a(I243
I243
I241
tp3937
a(I243
I243
I243
tp3938
a(I243
I243
I245
tp3939
a(I243
I244
I239
tp3940
a(I243
I244
I246
tp3941
a(I243
I244
I248
tp3942
a(I243
I244
I249
tp3943
a(I243
I245
I242
tp3944
a(I243
I245
I244
tp3945
a(I244
I242
I243
tp3946
a(I244
I242
I245
tp3947
a(I244
I243
I239
tp3948
a(I244
I243
I241
tp3949
a(I244
I243
I248
tp3950
a(I244
I244
I242
tp3951
a(I244
I244
I244
tp3952
a(I244
I244
I246
tp3953
a(I244
I245
I240
tp3954
a(I244
I245
I247
tp3955
a(I244
I245
I249
tp3956
a(I244
I246
I245
tp3957
a(I245
I243
I244
tp3958
a(I245
I243
I246
tp3959
a(I245
I243
I248
tp3960
a(I245
I244
I239
tp3961
a(I245
I244
I240
tp3962
a(I245
I244
I242
tp3963
a(I245
I244
I249
tp3964
a(I245
I245
I243
tp3965
a(I245
I245
I245
tp3966
a(I245
I245
I247
tp3967
a(I246
I242
I241
tp3968
a(I246
I242
I243
tp3969
a(I246
I244
I245
tp3970
a(I246
I244
I247
tp3971
a(I246
I244
I249
tp3972
a(I246
I245
I241
tp3973
a(I246
I245
I243
tp3974
a(I246
I246
I246
tp3975
a(I246
I246
I248
tp3976
a(I247
I243
I242
tp3977
a(I247
I243
I244
tp3978
a(I248
I242
I242
tp3979
a(I250
I255
I254
tp3980
a(I251
I255
I250
tp3981
a(I251
I255
I252
tp3982
a(I251
I255
I254
tp3983
a(I251
I255
I255
tp3984
a(I252
I253
I255
tp3985
a(I252
I255
I251
tp3986
a(I252
I255
I253
tp3987
a(I252
I255
I255
tp3988
a(I253
I253
I251
tp3989
a(I253
I253
I253
tp3990
a(I253
I253
I255
tp3991
a(I253
I254
I249
tp3992
a(I253
I254
I255
tp3993
a(I253
I255
I249
tp3994
a(I253
I255
I250
tp3995
a(I253
I255
I252
tp3996
a(I253
I255
I254
tp3997
a(I254
I253
I251
tp3998
a(I254
I253
I255
tp3999
a(I254
I254
I252
tp4000
a(I254
I254
I254
tp4001
a(I254
I254
I255
tp4002
a(I254
I255
I249
tp4003
a(I254
I255
I250
tp4004
a(I254
I255
I251
tp4005
a(I254
I255
I253
tp4006
a(I254
I255
I255
tp4007
a(I255
I252
I255
tp4008
a(I255
I253
I250
tp4009
a(I255
I253
I252
tp4010
a(I255
I253
I254
tp4011
a(I255
I253
I255
tp4012
a(I255
I254
I250
tp4013
a(I255
I254
I251
tp4014
a(I255
I254
I252
tp4015
a(I255
I254
I253
tp4016
a(I255
I254
I255
tp4017
a(I255
I255
I250
tp4018
a(I255
I255
I251
tp4019
a(I255
I255
I253
tp4020
a(I255
I255
I255
tp4021
a.